(dp1
(S'HCAndersen'
p2
S'red_shoe'
p3
I35
tp4
(lp5
(S'dancing'
p6
(lp7
(S'HAPPINESS'
p8
S'CUES OF ACUTE OR LONG-TERM'
p9
tp10
atp11
as(g2
S'goloshes'
p12
I303
tp13
(lp14
(S'crying'
p15
(lp16
(S'SADNESS'
p17
S'PHYSICAL SIGNALS'
p18
tp19
a(S'DEPRESSION'
p20
g18
tp21
a(S'EMBARRASSMENT'
p22
g9
tp23
atp24
as(g2
S'fir_tree'
p25
I82
tp26
(lp27
(g15
g16
tp28
as(S'Grimms'
p29
S'the_seven_ravens'
p30
I20
tp31
(lp32
(S'praying'
p33
(lp34
(S'ANXIETY'
p35
g18
tp36
atp37
as(S'Potter'
p38
S'the_tale_of_the_flopsy_bunnies'
p39
I29
tp40
(lp41
(S'staring'
p42
(lp43
(S'ENVY'
p44
g18
tp45
atp46
as(g29
S'80_the_death_of_the_little_hen'
p47
I10
tp48
(lp49
(g15
g16
tp50
as(g29
S'the_story_of_the_youth_who_went_forth_to_learn_what_fear_was'
p51
I127
tp52
(lp53
(S'lying'
p54
(lp55
(S'RELUCTANCE'
p56
g18
tp57
a(g20
S'CUES OF SUPPRESSED'
p58
tp59
a(g22
g58
tp60
a(S'GUILT'
p61
g18
tp62
a(S'INSECURITY'
p63
g58
tp64
atp65
as(g2
S'friendsh'
p66
I116
tp67
(lp68
(g42
g43
tp69
as(g2
S'elf_rose'
p70
I43
tp71
(lp72
(S'tears'
p73
(lp74
(S'SHAME'
p75
g18
tp76
a(S'HOPEFULNESS'
p77
g9
tp78
a(S'RESIGNATION'
p79
g18
tp80
atp81
a(S'relief'
p82
(lp83
(S'SYMPATHY'
p84
S'MENTAL RESPONSES'
p85
tp86
atp87
as(g2
S'li_ida_f'
p88
I114
tp89
(lp90
(g54
g55
tp91
as(g38
S'the_roly-poly_pudding'
p92
I95
tp93
(lp94
(g54
g55
tp95
as(g29
S'73_the_wolf_and_the_fox'
p96
I5
tp97
(lp98
(g15
g16
tp99
as(g2
S'old_bach'
p100
I174
tp101
(lp102
(S'laughing'
p103
(lp104
(S'ELATION'
p105
g18
tp106
a(S'EXCITEMENT'
p107
g18
tp108
atp109
as(g29
S'the_robber_bridegroom'
p110
I11
tp111
(lp112
(S'reaching'
p113
(lp114
(g44
g18
tp115
atp116
as(g2
S'metal_pi'
p117
I126
tp118
(lp119
(S'looking down'
p120
(lp121
(S'UNCERTAINTY'
p122
g18
tp123
atp124
as(g2
S'old_hous'
p125
I79
tp126
(lp127
(g73
g74
tp128
as(g29
S'iron_hans'
p129
I10
tp130
(lp131
(S'stretching'
p132
(lp133
(S'CONFIDENCE'
p134
g18
tp135
atp136
as(g29
S'13_the_three_little_men_in_the_wood'
p137
I43
tp138
(lp139
(g15
g16
tp140
a(S'arrogance'
p141
(lp142
(S'SCORN'
p143
g85
tp144
atp145
as(g29
S'the_twelve_dancing_princesses'
p146
I5
tp147
(lp148
(g6
g7
tp149
as(g2
S'grandmot'
p150
I0
tp151
(lp152
(g42
g43
tp153
as(g2
S'the_toad'
p154
I153
tp155
(lp156
(g15
g16
tp157
as(g2
S'ugly_duc'
p158
I34
tp159
(lp160
(g15
g16
tp161
as(g29
S'mother_holle'
p162
I7
tp163
(lp164
(g15
g16
tp165
as(g2
g125
I130
tp166
(lp167
(g73
g74
tp168
as(g29
S'the_juniper-tree'
p169
I52
tp170
(lp171
(S'weeping'
p172
(lp173
(S'DREAD'
p174
g9
tp175
a(S'OVERWHELMED'
p176
g85
tp177
atp178
as(g29
g30
I15
tp179
(lp180
(g42
g43
tp181
as(g2
g117
I44
tp182
(lp183
(S'pacing'
p184
(lp185
(S'ANNOYANCE'
p186
g18
tp187
a(S'WORRY'
p188
g18
tp189
a(S'DESPERATION'
p190
g18
tp191
a(S'NERVOUSNESS'
p192
g18
tp193
a(S'UNEASE'
p194
g9
tp195
a(S'ANTICIPATION'
p196
g18
tp197
a(S'IMPATIENCE'
p198
g18
tp199
a(S'AGITATION'
p200
g18
tp201
a(S'SUSPICION'
p202
g18
tp203
atp204
as(g29
S'rumpelstiltskin'
p205
I48
tp206
(lp207
(g103
g104
tp208
as(g29
S'the_little_peasant'
p209
I12
tp210
(lp211
(S'running away'
p212
(lp213
(S'HURT'
p214
g9
tp215
atp216
as(g2
S'child_in'
p217
I77
tp218
(lp219
(g54
g55
tp220
as(g2
S'snow_man'
p221
I63
tp222
(lp223
(g54
g55
tp224
as(g2
g117
I8
tp225
(lp226
(g42
g43
tp227
as(g2
S'li_elder'
p228
I69
tp229
(lp230
(g15
g16
tp231
as(g29
g96
I18
tp232
(lp233
(g54
g55
tp234
as(g2
g12
I146
tp235
(lp236
(S'anxiety'
p237
(lp238
(g61
g85
tp239
atp240
as(g2
S'buckwhet'
p241
I17
tp242
(lp243
(g15
g16
tp244
as(g2
g158
I134
tp245
(lp246
(g15
g16
tp247
as(g2
g217
I40
tp248
(lp249
(g42
g43
tp250
as(g29
S'29_the_devil_with_the_three_golden_hairs'
p251
I29
tp252
(lp253
(S'contentment'
p254
(lp255
(S'SATISFACTION'
p256
g85
tp257
atp258
as(g2
S'mailcoac'
p259
I85
tp260
(lp261
(g113
g114
tp262
as(g29
S'the_golden_bird'
p263
I37
tp264
(lp265
(g15
g16
tp266
as(g29
g169
I93
tp267
(lp268
(g54
g55
tp269
as(g2
S'neighbor'
p270
I73
tp271
(lp272
(S'trembling'
p273
(lp274
(S'DESIRE'
p275
g18
tp276
a(g107
g18
tp277
atp278
as(g2
g70
I5
tp279
(lp280
(g6
g7
tp281
as(g2
g25
I133
tp282
(lp283
(S'sighing'
p284
(lp285
(g122
g18
tp286
atp287
as(g29
S'first_story'
p288
I1
tp289
(lp290
(g132
g133
tp291
as(g2
S'somethin'
p292
I98
tp293
(lp294
(g15
g16
tp295
as(g29
S'163_the_glass_coffin'
p296
I28
tp297
(lp298
(S'hesitating'
p299
(lp300
(S'DISGUST'
p301
g58
tp302
atp303
as(g2
S'li_claus'
p304
I137
tp305
(lp306
(g113
g114
tp307
as(g2
g158
I85
tp308
(lp309
(g113
g114
tp310
as(g2
S'darning'
p311
I39
tp312
(lp313
(S'waist'
p314
(lp315
(S'WARINESS'
p316
g58
tp317
atp318
as(g29
g296
I84
tp319
(lp320
(g113
g114
tp321
as(g2
S'ib_and_l'
p322
I75
tp323
(lp324
(g113
g114
tp325
as(g38
S'the_tale_of_benjamin_bunny'
p326
I60
tp327
(lp328
(S'scratching'
p329
(lp330
(g35
g18
tp331
atp332
as(g2
g66
I84
tp333
(lp334
(g113
g114
tp335
as(g29
S'hans_in_luck'
p336
I55
tp337
(lp338
(S'smiling'
p339
(lp340
(g8
g18
tp341
a(S'ADORATION'
p342
g18
tp343
a(g77
g18
tp344
atp345
as(g29
S'frederick_and_catherine'
p346
I37
tp347
(lp348
(g15
g16
tp349
as(g29
S'clever_elsie'
p350
I10
tp351
(lp352
(g172
g173
tp353
as(g2
S'old_chur'
p354
I19
tp355
(lp356
(g73
g74
tp357
as(g2
g100
I78
tp358
(lp359
(g73
g74
tp360
as(g2
g270
I82
tp361
(lp362
(g15
g16
tp363
as(g2
S'beetle'
p364
I46
tp365
(lp366
(g15
g16
tp367
as(g2
S'the_wind'
p368
I32
tp369
(lp370
(S'stalking'
p371
(lp372
(g342
g9
tp373
a(g202
g9
tp374
atp375
as(g29
g146
I37
tp376
(lp377
(g6
g7
tp378
a(g6
g7
tp379
as(g2
g3
I42
tp380
(lp381
(g6
g7
tp382
as(g29
S'the_dog_and_the_sparrow'
p383
I28
tp384
(lp385
(g15
g16
tp386
as(g2
g259
I30
tp387
(lp388
(S'shouting'
p389
(lp390
(S'DEFENSIVENESS'
p391
g9
tp392
atp393
as(g29
g263
I28
tp394
(lp395
(S'screaming'
p396
(lp397
(S'RAGE'
p398
g18
tp399
a(g190
g9
tp400
atp401
as(g2
S'races'
p402
I41
tp403
(lp404
(g54
g55
tp405
as(g29
S'the_turnip'
p406
I23
tp407
(lp408
(g15
g16
tp409
as(g2
S'belldeep'
p410
I39
tp411
(lp412
(g396
g397
tp413
a(g120
g121
tp414
as(g29
g47
I3
tp415
(lp416
(g15
g16
tp417
as(g2
S'li_tiny'
p418
I46
tp419
(lp420
(g314
g315
tp421
as(g29
S'3_our_ladys_child'
p422
I70
tp423
(lp424
(g15
g16
tp425
as(g2
S'bell'
p426
I48
tp427
(lp428
(g329
g330
tp429
as(g29
S'35_the_tailor_in_heaven'
p430
I9
tp431
(lp432
(g15
g16
tp433
as(g29
g346
I62
tp434
(lp435
(g113
g114
tp436
as(g2
g12
I417
tp437
(lp438
(g396
g397
tp439
as(g29
S'the_blue_light'
p440
I16
tp441
(lp442
(g132
g133
tp443
as(g2
S'tin_sold'
p444
I56
tp445
(lp446
(S'swallowing'
p447
(lp448
(g122
g18
tp449
atp450
as(g2
S'nursery'
p451
I69
tp452
(lp453
(g15
g16
tp454
as(g29
g169
I115
tp455
(lp456
(g73
g74
tp457
as(g29
S'the_salad'
p458
I7
tp459
(lp460
(g396
g397
tp461
a(g396
g397
tp462
as(g2
g368
I25
tp463
(lp464
(g6
g7
tp465
as(g2
g12
I151
tp466
(lp467
(g54
g55
tp468
as(g2
g228
I55
tp469
(lp470
(g6
g7
tp471
a(g15
g16
tp472
a(g15
g16
tp473
as(g2
g150
I9
tp474
(lp475
(g339
g340
tp476
as(g2
g3
I53
tp477
(lp478
(g6
g7
tp479
as(g29
S'30_the_louse_and_the_flea'
p480
I25
tp481
(lp482
(S'shaking'
p483
(lp484
(S'REMORSE'
p485
g18
tp486
atp487
a(g483
g484
tp488
a(g483
g484
tp489
as(g2
S'beauty'
p490
I69
tp491
(lp492
(g339
g340
tp493
as(g2
g364
I103
tp494
(lp495
(g113
g114
tp496
as(g29
S'the_valiant_little_tailor'
p497
I7
tp498
(lp499
(g15
g16
tp500
as(g2
S'anne_lis'
p501
I59
tp502
(lp503
(S'walking out of the room'
p504
(lp505
(S'RESENTMENT'
p506
g18
tp507
atp508
as(g2
S'storks'
p509
I0
tp510
(lp511
(g132
g133
tp512
as(g29
g51
I105
tp513
(lp514
(g15
g16
tp515
as(g2
g418
I49
tp516
(lp517
(g212
g213
tp518
as(g2
S'last_pea'
p519
I5
tp520
(lp521
(g42
g43
tp522
a(g42
g43
tp523
as(g2
g66
I17
tp524
(lp525
(g15
g16
tp526
as(g2
g25
I18
tp527
(lp528
(g447
g448
tp529
as(g29
S'114_the_cunning_little_tailor'
p530
I20
tp531
(lp532
(g237
g238
tp533
as(g2
g501
I109
tp534
(lp535
(g54
g55
tp536
as(g29
S'tom_thumb'
p537
I19
tp538
(lp539
(g15
g16
tp540
as(g38
S'the_tale_of_mr_tod'
p541
I114
tp542
(lp543
(g284
g285
tp544
as(g2
g100
I188
tp545
(lp546
(g54
g55
tp547
as(g29
S'the_twelve_huntsmen'
p548
I29
tp549
(lp550
(g54
g55
tp551
as(g2
g12
I155
tp552
(lp553
(g54
g55
tp554
as(g29
S'the_miser_in_the_bush'
p555
I42
tp556
(lp557
(g6
g7
tp558
a(g15
g16
tp559
as(g29
S'the_travelling_musicians'
p560
I14
tp561
(lp562
(g396
g397
tp563
as(g2
S'bishop_b'
p564
I106
tp565
(lp566
(g54
g55
tp567
as(g29
S'rapunzel'
p568
I46
tp569
(lp570
(g15
g16
tp571
as(g29
g383
I50
tp572
(lp573
(S'rage'
p574
(lp575
(S'PARANOIA'
p576
g9
tp577
atp578
as(g2
g12
I44
tp579
(lp580
(g33
g34
tp581
as(g29
S'clever_gretel'
p582
I25
tp583
(lp584
(g15
g16
tp585
as(g2
g12
I301
tp586
(lp587
(g54
g55
tp588
as(g29
g205
I34
tp589
(lp590
(g6
g7
tp591
as(g2
g25
I142
tp592
(lp593
(g447
g448
tp594
a(g15
g16
tp595
as(g29
S'snowdrop'
p596
I52
tp597
(lp598
(g132
g133
tp599
as(g29
S'11_little_brother_and_little_sister'
p600
I74
tp601
(lp602
(g54
g55
tp603
as(g2
S'golden'
p604
I17
tp605
(lp606
(g329
g330
tp607
as(g2
g259
I88
tp608
(lp609
(g42
g43
tp610
as(g38
S'the_tale_of_two_bad_mice'
p611
I7
tp612
(lp613
(g329
g330
tp614
as(g2
g158
I175
tp615
(lp616
(g15
g16
tp617
as(g2
g451
I7
tp618
(lp619
(g54
g55
tp620
as(g29
g548
I4
tp621
(lp622
(g113
g114
tp623
as(g29
S'little_red-cap_[little_red_riding_hood]'
p624
I41
tp625
(lp626
(g447
g448
tp627
as(g29
S'ashputtel'
p628
I93
tp629
(lp630
(g113
g114
tp631
as(g2
g12
I385
tp632
(lp633
(g284
g285
tp634
as(g2
S'por_duck'
p635
I62
tp636
(lp637
(g54
g55
tp638
as(g29
S'the_queen_bee'
p639
I18
tp640
(lp641
(g15
g16
tp642
as(g2
S'swineher'
p643
I19
tp644
(lp645
(g15
g16
tp646
as(g2
g66
I13
tp647
(lp648
(g73
g74
tp649
a(g73
g74
tp650
as(g29
g336
I110
tp651
(lp652
(g15
g16
tp653
as(g2
g364
I85
tp654
(lp655
(g15
g16
tp656
as(g29
S'the_raven'
p657
I21
tp658
(lp659
(g54
g55
tp660
as(g29
S'90_the_young_giant'
p661
I90
tp662
(lp663
(g329
g330
tp664
a(g15
g16
tp665
as(g29
S'the_white_snake'
p666
I33
tp667
(lp668
(g54
g55
tp669
as(g2
g501
I91
tp670
(lp671
(S'silence'
p672
(lp673
(g485
g18
tp674
atp675
as(g2
S'goblin'
p676
I26
tp677
(lp678
(g42
g43
tp679
as(g38
g541
I32
tp680
(lp681
(g103
g104
tp682
as(g2
g25
I143
tp683
(lp684
(g15
g16
tp685
as(g2
g426
I63
tp686
(lp687
(g113
g114
tp688
as(g29
g497
I60
tp689
(lp690
(g54
g55
tp691
as(g29
S'the_adventures_of_chanticleer_and_partlet'
p692
I11
tp693
(lp694
(g15
g16
tp695
as(g29
S'the_king_of_the_golden_mountain'
p696
I89
tp697
(lp698
(g15
g16
tp699
as(g2
S'popular'
p700
I6
tp701
(lp702
(g284
g285
tp703
a(g284
g285
tp704
as(g29
g497
I3
tp705
(lp706
(g132
g133
tp707
as(g2
S'bottle_n'
p708
I40
tp709
(lp710
(g103
g104
tp711
a(g103
g104
tp712
as(g2
g125
I89
tp713
(lp714
(g103
g104
tp715
a(g103
g104
tp716
as(g29
g628
I10
tp717
(lp718
(g15
g16
tp719
as(g2
g604
I148
tp720
(lp721
(g73
g74
tp722
as(g2
g3
I60
tp723
(lp724
(g6
g7
tp725
a(g113
g114
tp726
as(g29
g480
I2
tp727
(lp728
(g396
g397
tp729
as(g2
g444
I65
tp730
(lp731
(g73
g74
tp732
as(g2
S'flying_t'
p733
I98
tp734
(lp735
(g42
g43
tp736
as(g29
g497
I14
tp737
(lp738
(g132
g133
tp739
as(g2
S'li_tuk'
p740
I50
tp741
(lp742
(g15
g16
tp743
as(g2
g501
I34
tp744
(lp745
(g15
g16
tp746
as(g2
g12
I522
tp747
(lp748
(g54
g55
tp749
as(g2
S'lovelies'
p750
I34
tp751
(lp752
(g15
g16
tp753
as(g29
g537
I94
tp754
(lp755
(g15
g16
tp756
as(g38
g541
I168
tp757
(lp758
(g396
g397
tp759
as(g2
S'flax'
p760
I71
tp761
(lp762
(g15
g16
tp763
as(g2
g12
I479
tp764
(lp765
(g237
g238
tp766
as(g29
g537
I89
tp767
(lp768
(g389
g390
tp769
as(g2
S'elfin_hi'
p770
I66
tp771
(lp772
(g6
g7
tp773
as(g29
S'cat-skin'
p774
I21
tp775
(lp776
(g54
g55
tp777
a(g54
g55
tp778
as(g29
S'106_the_poor_millers_boy_and_the_cat'
p779
I51
tp780
(lp781
(g54
g55
tp782
as(g2
S'good_for'
p783
I114
tp784
(lp785
(g33
g34
tp786
as(g29
g110
I14
tp787
(lp788
(g672
g673
tp789
as(g2
g12
I352
tp790
(lp791
(g284
g285
tp792
as(g29
g657
I71
tp793
(lp794
(g113
g114
tp795
as(g2
g217
I30
tp796
(lp797
(g339
g340
tp798
as(g29
g146
I2
tp799
(lp800
(g6
g7
tp801
as(g29
g263
I55
tp802
(lp803
(S'clapping'
p804
(lp805
(g256
g18
tp806
atp807
as(g2
g125
I135
tp808
(lp809
(g15
g16
tp810
as(g29
g582
I14
tp811
(lp812
(S'shame'
p813
(lp814
(S'DEFEAT'
p815
g85
tp816
atp817
as(g2
g154
I1
tp818
(lp819
(g113
g114
tp820
a(g120
g121
tp821
as(g2
g117
I33
tp822
(lp823
(g132
g133
tp824
as(g2
g604
I74
tp825
(lp826
(g54
g55
tp827
as(g2
g501
I9
tp828
(lp829
(S'going for a walk'
p830
(lp831
(g198
g58
tp832
atp833
as(g29
g51
I91
tp834
(lp835
(g103
g104
tp836
as(g2
g12
I199
tp837
(lp838
(g54
g55
tp839
as(g29
S'16_the_three_snake-leaves'
p840
I24
tp841
(lp842
(g54
g55
tp843
as(g2
g88
I22
tp844
(lp845
(g6
g7
tp846
as(g29
g596
I79
tp847
(lp848
(g54
g55
tp849
as(g2
g66
I70
tp850
(lp851
(g73
g74
tp852
a(g73
g74
tp853
as(g29
S'lily_and_the_lion'
p854
I16
tp855
(lp856
(g73
g74
tp857
as(g29
g624
I62
tp858
(lp859
(g132
g133
tp860
a(g113
g114
tp861
as(g29
g346
I23
tp862
(lp863
(g15
g16
tp864
as(g29
g129
I22
tp865
(lp866
(g54
g55
tp867
as(g38
S'the_tale_of_mr_jeremy_fisher'
p868
I21
tp869
(lp870
(g113
g114
tp871
as(g2
g117
I133
tp872
(lp873
(S'flight'
p874
(lp875
(g176
g85
tp876
atp877
as(g2
S'a_story'
p878
I29
tp879
(lp880
(g132
g133
tp881
as(g29
g251
I24
tp882
(lp883
(g54
g55
tp884
as(g2
S'butterfl'
p885
I1
tp886
(lp887
(g371
g372
tp888
as(g29
g162
I35
tp889
(lp890
(g15
g16
tp891
as(g2
S'great_gr'
p892
I27
tp893
(lp894
(g339
g340
tp895
as(g29
g582
I23
tp896
(lp897
(g447
g448
tp898
as(g2
g117
I72
tp899
(lp900
(g396
g397
tp901
a(g396
g397
tp902
as(g29
S'the_water_of_life'
p903
I24
tp904
(lp905
(g33
g34
tp906
as(g2
g368
I50
tp907
(lp908
(g73
g74
tp909
a(g103
g104
tp910
a(g132
g133
tp911
a(g15
g16
tp912
as(g2
g304
I32
tp913
(lp914
(g574
g575
tp915
as(g29
g600
I18
tp916
(lp917
(g212
g213
tp918
a(g33
g34
tp919
as(g2
g878
I79
tp920
(lp921
(g73
g74
tp922
as(g2
g322
I24
tp923
(lp924
(g396
g397
tp925
as(g2
g158
I80
tp926
(lp927
(g284
g285
tp928
as(g29
g169
I10
tp929
(lp930
(g172
g173
tp931
as(g2
g228
I91
tp932
(lp933
(g396
g397
tp934
as(g2
g100
I130
tp935
(lp936
(g73
g74
tp937
as(g2
g66
I81
tp938
(lp939
(g42
g43
tp940
as(g2
S'nighting'
p941
I49
tp942
(lp943
(g15
g16
tp944
as(g2
S'heaven'
p945
I5
tp946
(lp947
(S'sneering'
p948
(lp949
(S'CONTEMPT'
p950
g18
tp951
a(S'JEALOUSY'
p952
g18
tp953
atp954
as(g2
g12
I445
tp955
(lp956
(g103
g104
tp957
as(g2
g364
I43
tp958
(lp959
(g54
g55
tp960
a(g54
g55
tp961
as(g2
g304
I25
tp962
(lp963
(g54
g55
tp964
as(g29
g568
I21
tp965
(lp966
(g15
g16
tp967
as(g2
g676
I15
tp968
(lp969
(S'confusion'
p970
(lp971
(g316
g85
tp972
atp973
as(g29
S'cat_and_mouse_in_partnership'
p974
I16
tp975
(lp976
(g15
g16
tp977
as(g2
g25
I86
tp978
(lp979
(g15
g16
tp980
a(g15
g16
tp981
as(g2
g368
I121
tp982
(lp983
(g73
g74
tp984
as(g29
g209
I49
tp985
(lp986
(g15
g16
tp987
as(g29
g406
I18
tp988
(lp989
(g54
g55
tp990
as(g29
g47
I6
tp991
(lp992
(g447
g448
tp993
a(g54
g55
tp994
as(g2
g25
I4
tp995
(lp996
(S'complaining'
p997
(lp998
(g186
g18
tp999
a(g506
g18
tp1000
atp1001
as(g29
S'the_old_man_and_his_grandson'
p1002
I4
tp1003
(lp1004
(g284
g285
tp1005
as(g2
g88
I118
tp1006
(lp1007
(g6
g7
tp1008
as(g2
g770
I91
tp1009
(lp1010
(g103
g104
tp1011
as(g2
g783
I3
tp1012
(lp1013
(g15
g16
tp1014
as(g29
g696
I79
tp1015
(lp1016
(g172
g173
tp1017
as(g2
g364
I50
tp1018
(lp1019
(g54
g55
tp1020
as(g29
g497
I106
tp1021
(lp1022
(S'tearing up'
p1023
(lp1024
(S'GRATITUDE'
p1025
g18
tp1026
atp1027
a(g73
g74
tp1028
as(g29
g628
I52
tp1029
(lp1030
(g54
g55
tp1031
as(g29
g696
I25
tp1032
(lp1033
(g33
g34
tp1034
as(g2
g364
I124
tp1035
(lp1036
(g113
g114
tp1037
as(g29
g903
I56
tp1038
(lp1039
(g33
g34
tp1040
as(g29
S'the_wolf_and_the_seven_little_kids'
p1041
I52
tp1042
(lp1043
(g6
g7
tp1044
as(g2
g783
I104
tp1045
(lp1046
(g54
g55
tp1047
as(g29
S'sweetheart_roland'
p1048
I26
tp1049
(lp1050
(g15
g16
tp1051
as(g2
g100
I193
tp1052
(lp1053
(g273
g274
tp1054
as(g29
g666
I24
tp1055
(lp1056
(g15
g16
tp1057
as(g2
g70
I62
tp1058
(lp1059
(g172
g173
tp1060
as(g29
g692
I38
tp1061
(lp1062
(g447
g448
tp1063
as(g2
S'dullard'
p1064
I19
tp1065
(lp1066
(g103
g104
tp1067
a(g15
g16
tp1068
as(g2
g501
I98
tp1069
(lp1070
(g54
g55
tp1071
a(g54
g55
tp1072
as(g2
g783
I58
tp1073
(lp1074
(g73
g74
tp1075
as(g29
S'king_grisly-beard'
p1076
I22
tp1077
(lp1078
(g284
g285
tp1079
as(g38
S'the_pie_and_the_patty-pan'
p1080
I108
tp1081
(lp1082
(g42
g43
tp1083
as(g38
g92
I50
tp1084
(lp1085
(g329
g330
tp1086
as(g29
g51
I84
tp1087
(lp1088
(S'muttering'
p1089
(lp1090
(S'ANGUISH'
p1091
g18
tp1092
atp1093
as(g29
g110
I56
tp1094
(lp1095
(g15
g16
tp1096
as(g2
S'dumbbook'
p1097
I10
tp1098
(lp1099
(g73
g74
tp1100
as(g38
S'the_tale_of_mrs_tittlemouse'
p1101
I49
tp1102
(lp1103
(g339
g340
tp1104
as(g2
g270
I128
tp1105
(lp1106
(g15
g16
tp1107
as(g2
g217
I44
tp1108
(lp1109
(g15
g16
tp1110
as(g2
g770
I2
tp1111
(lp1112
(g6
g7
tp1113
as(g29
g1076
I72
tp1114
(lp1115
(g6
g7
tp1116
as(g2
g25
I152
tp1117
(lp1118
(g284
g285
tp1119
a(g284
g285
tp1120
as(g29
S'hansel_and_gretel'
p1121
I72
tp1122
(lp1123
(g15
g16
tp1124
as(g2
g364
I75
tp1125
(lp1126
(g54
g55
tp1127
as(g2
g733
I89
tp1128
(lp1129
(g389
g390
tp1130
as(g2
g125
I112
tp1131
(lp1132
(S'moving away'
p1133
(lp1134
(g485
g58
tp1135
atp1136
as(g29
g205
I39
tp1137
(lp1138
(g15
g16
tp1139
as(g29
S'96_the_three_little_birds'
p1140
I9
tp1141
(lp1142
(g42
g43
tp1143
as(g38
g541
I283
tp1144
(lp1145
(g273
g274
tp1146
as(g2
g418
I96
tp1147
(lp1148
(g54
g55
tp1149
as(g2
S'last_dre'
p1150
I46
tp1151
(lp1152
(g6
g7
tp1153
a(g6
g7
tp1154
as(g29
g600
I71
tp1155
(lp1156
(g54
g55
tp1157
as(g29
g263
I12
tp1158
(lp1159
(g113
g114
tp1160
as(g38
g326
I48
tp1161
(lp1162
(g132
g133
tp1163
as(g29
g555
I6
tp1164
(lp1165
(g6
g7
tp1166
as(g29
g560
I42
tp1167
(lp1168
(g329
g330
tp1169
as(g29
g350
I14
tp1170
(lp1171
(g396
g397
tp1172
as(g2
g88
I86
tp1173
(lp1174
(g6
g7
tp1175
as(g2
S'li_match'
p1176
I29
tp1177
(lp1178
(g132
g133
tp1179
as(g29
g1121
I97
tp1180
(lp1181
(g132
g133
tp1182
as(g29
g263
I74
tp1183
(lp1184
(g172
g173
tp1185
as(g2
S'almshous'
p1186
I9
tp1187
(lp1188
(g6
g7
tp1189
as(g29
S'doctor_knowall'
p1190
I33
tp1191
(lp1192
(g15
g16
tp1193
as(g2
g740
I14
tp1194
(lp1195
(g15
g16
tp1196
as(g2
g368
I60
tp1197
(lp1198
(g371
g372
tp1199
as(g29
g657
I30
tp1200
(lp1201
(S'not eating or drinking'
p1202
(lp1203
(g1091
g18
tp1204
atp1205
as(g2
g418
I100
tp1206
(lp1207
(g447
g448
tp1208
as(g29
g251
I88
tp1209
(lp1210
(g997
g998
tp1211
as(g29
S'the_willow-wren_and_the_bear'
p1212
I24
tp1213
(lp1214
(g212
g213
tp1215
as(g2
g259
I26
tp1216
(lp1217
(g6
g7
tp1218
as(g29
g263
I24
tp1219
(lp1220
(g54
g55
tp1221
as(g29
g497
I24
tp1222
(lp1223
(g113
g114
tp1224
as(g2
g501
I80
tp1225
(lp1226
(g132
g133
tp1227
as(g2
g292
I95
tp1228
(lp1229
(S'exhaustion'
p1230
(lp1231
(S'FEAR'
p1232
g9
tp1233
a(g61
g9
tp1234
atp1235
a(g113
g114
tp1236
as(g29
g296
I65
tp1237
(lp1238
(g672
g673
tp1239
as(g2
g3
I92
tp1240
(lp1241
(g73
g74
tp1242
as(g2
S'old_grav'
p1243
I21
tp1244
(lp1245
(g172
g173
tp1246
as(g2
g88
I125
tp1247
(lp1248
(g6
g7
tp1249
as(g29
g51
I209
tp1250
(lp1251
(g15
g16
tp1252
as(g2
g444
I60
tp1253
(lp1254
(g15
g16
tp1255
as(g2
g304
I105
tp1256
(lp1257
(g15
g16
tp1258
as(g2
g354
I0
tp1259
(lp1260
(g54
g55
tp1261
as(g2
g364
I57
tp1262
(lp1263
(g54
g55
tp1264
as(g2
g117
I109
tp1265
(lp1266
(g113
g114
tp1267
as(g29
S'87_the_poor_man_and_the_rich_man'
p1268
I0
tp1269
(lp1270
(g113
g114
tp1271
as(g29
g628
I15
tp1272
(lp1273
(g15
g16
tp1274
as(g2
g158
I136
tp1275
(lp1276
(g132
g133
tp1277
a(g15
g16
tp1278
as(g2
g217
I12
tp1279
(lp1280
(g73
g74
tp1281
as(g2
g3
I57
tp1282
(lp1283
(g6
g7
tp1284
a(g6
g7
tp1285
as(g29
S'22_the_riddle'
p1286
I27
tp1287
(lp1288
(g447
g448
tp1289
as(g29
S'old_sultan'
p1290
I22
tp1291
(lp1292
(g329
g330
tp1293
as(g2
g402
I28
tp1294
(lp1295
(g874
g875
tp1296
as(g38
S'the_tailor_of_gloucester'
p1297
I78
tp1298
(lp1299
(g103
g104
tp1300
as(g2
g12
I256
tp1301
(lp1302
(S'anger'
p1303
(lp1304
(g143
g85
tp1305
a(S'SKEPTICISM'
p1306
g9
tp1307
atp1308
as(g29
g51
I117
tp1309
(lp1310
(g15
g16
tp1311
as(g2
S'top_ball'
p1312
I6
tp1313
(lp1314
(g6
g7
tp1315
as(g29
g840
I42
tp1316
(lp1317
(g113
g114
tp1318
as(g2
g322
I111
tp1319
(lp1320
(S'hesitation'
p1321
(lp1322
(g316
g18
tp1323
a(g316
g58
tp1324
atp1325
as(g29
g336
I19
tp1326
(lp1327
(g103
g104
tp1328
as(g2
S'cock'
p1329
I10
tp1330
(lp1331
(g6
g7
tp1332
as(g29
g146
I31
tp1333
(lp1334
(g15
g16
tp1335
a(g273
g274
tp1336
as(g29
g383
I54
tp1337
(lp1338
(g15
g16
tp1339
as(g2
g125
I136
tp1340
(lp1341
(g15
g16
tp1342
as(g29
g336
I69
tp1343
(lp1344
(g33
g34
tp1345
a(g15
g16
tp1346
as(g2
g708
I102
tp1347
(lp1348
(g54
g55
tp1349
as(g2
g12
I297
tp1350
(lp1351
(g284
g285
tp1352
as(g29
g774
I26
tp1353
(lp1354
(g54
g55
tp1355
as(g29
g628
I96
tp1356
(lp1357
(g1303
g1304
tp1358
as(g2
g304
I50
tp1359
(lp1360
(g15
g16
tp1361
as(g2
S'delayingREMLASTUNTAGSENT'
p1362
I47
tp1363
(lp1364
(g371
g372
tp1365
as(g2
g304
I135
tp1366
(lp1367
(S'keeping silent'
p1368
(lp1369
(g1232
g58
tp1370
a(g506
g58
tp1371
atp1372
as(g2
g501
I112
tp1373
(lp1374
(S'walking away'
p1375
(lp1376
(S'DISBELIEF'
p1377
g9
tp1378
a(g950
g18
tp1379
a(g506
g58
tp1380
a(g1306
g18
tp1381
atp1382
as(g2
g322
I120
tp1383
(lp1384
(g299
g300
tp1385
as(g29
g779
I47
tp1386
(lp1387
(g54
g55
tp1388
as(g29
g600
I56
tp1389
(lp1390
(g132
g133
tp1391
as(g29
g657
I91
tp1392
(lp1393
(g15
g16
tp1394
as(g29
S'the_straw,_the_coal,_and_the_bean'
p1395
I18
tp1396
(lp1397
(g103
g104
tp1398
a(g103
g104
tp1399
as(g29
S'jorinda_and_jorindel'
p1400
I12
tp1401
(lp1402
(g273
g274
tp1403
as(g2
g885
I12
tp1404
(lp1405
(g33
g34
tp1406
as(g2
g418
I184
tp1407
(lp1408
(g447
g448
tp1409
as(g29
g1121
I94
tp1410
(lp1411
(g172
g173
tp1412
as(g29
g162
I38
tp1413
(lp1414
(g33
g34
tp1415
a(g15
g16
tp1416
a(g483
g484
tp1417
a(g483
g484
tp1418
as(g2
g708
I77
tp1419
(lp1420
(g113
g114
tp1421
as(g2
g12
I350
tp1422
(lp1423
(g389
g390
tp1424
as(g29
g458
I26
tp1425
(lp1426
(g54
g55
tp1427
a(g113
g114
tp1428
as(g2
g25
I155
tp1429
(lp1430
(g42
g43
tp1431
as(g29
g903
I29
tp1432
(lp1433
(g54
g55
tp1434
a(g113
g114
tp1435
as(g29
g596
I33
tp1436
(lp1437
(g15
g16
tp1438
as(g2
g418
I111
tp1439
(lp1440
(g447
g448
tp1441
as(g2
g158
I79
tp1442
(lp1443
(S'glaring'
p1444
(lp1445
(S'ANGER'
p1446
g18
tp1447
atp1448
as(g2
g364
I132
tp1449
(lp1450
(g54
g55
tp1451
as(g29
g666
I37
tp1452
(lp1453
(g15
g16
tp1454
as(g2
g12
I227
tp1455
(lp1456
(g42
g43
tp1457
as(g2
g221
I94
tp1458
(lp1459
(g132
g133
tp1460
as(g2
g941
I135
tp1461
(lp1462
(S'illness'
p1463
(lp1464
(g20
g18
tp1465
a(g506
g9
tp1466
atp1467
as(g29
S'91_the_gnome'
p1468
I23
tp1469
(lp1470
(g396
g397
tp1471
a(g15
g16
tp1472
as(g29
S'the_pink'
p1473
I5
tp1474
(lp1475
(g54
g55
tp1476
as(g2
g733
I25
tp1477
(lp1478
(g103
g104
tp1479
as(g2
g158
I152
tp1480
(lp1481
(g54
g55
tp1482
as(g2
g878
I55
tp1483
(lp1484
(g273
g274
tp1485
as(g38
S'the_tale_of_pigling_bland'
p1486
I56
tp1487
(lp1488
(S'fumbling'
p1489
(lp1490
(S'CONFUSION'
p1491
g18
tp1492
atp1493
as(g2
g3
I71
tp1494
(lp1495
(g6
g7
tp1496
as(g29
S'the_fox_and_the_horse'
p1497
I6
tp1498
(lp1499
(g54
g55
tp1500
as(g29
g555
I20
tp1501
(lp1502
(g6
g7
tp1503
as(g2
g364
I48
tp1504
(lp1505
(g447
g448
tp1506
as(g2
g635
I77
tp1507
(lp1508
(g15
g16
tp1509
as(g2
g88
I68
tp1510
(lp1511
(g54
g55
tp1512
as(g38
g541
I150
tp1513
(lp1514
(g15
g16
tp1515
as(g29
g146
I17
tp1516
(lp1517
(g103
g104
tp1518
as(g29
g169
I124
tp1519
(lp1520
(g15
g16
tp1521
as(g2
g304
I28
tp1522
(lp1523
(g132
g133
tp1524
as(g2
g878
I43
tp1525
(lp1526
(g6
g7
tp1527
as(g29
g51
I168
tp1528
(lp1529
(g54
g55
tp1530
as(g2
g418
I118
tp1531
(lp1532
(g447
g448
tp1533
as(g29
g383
I22
tp1534
(lp1535
(g15
g16
tp1536
as(g29
g1121
I33
tp1537
(lp1538
(S'fatigue'
p1539
(lp1540
(g20
S'INTERNAL SENSATIONS'
p1541
tp1542
a(g398
g9
tp1543
a(g576
g1541
tp1544
a(S'LONELINESS'
p1545
g1541
tp1546
atp1547
as(g2
g643
I15
tp1548
(lp1549
(g813
g814
tp1550
as(g29
S'the_golden_goose'
p1551
I25
tp1552
(lp1553
(g396
g397
tp1554
as(g29
g51
I139
tp1555
(lp1556
(g15
g16
tp1557
as(g2
g490
I74
tp1558
(lp1559
(g339
g340
tp1560
as(g2
g25
I81
tp1561
(lp1562
(g6
g7
tp1563
as(g29
g530
I22
tp1564
(lp1565
(g113
g114
tp1566
as(g2
g509
I29
tp1567
(lp1568
(g15
g16
tp1569
as(g29
g537
I82
tp1570
(lp1571
(g447
g448
tp1572
as(g2
g418
I36
tp1573
(lp1574
(g113
g114
tp1575
as(g2
g154
I61
tp1576
(lp1577
(g42
g43
tp1578
as(g2
g1150
I23
tp1579
(lp1580
(g6
g7
tp1581
as(g29
S'briar_rose'
p1582
I18
tp1583
(lp1584
(S'spinning away'
p1585
(lp1586
(g214
g18
tp1587
atp1588
as(g2
g304
I167
tp1589
(lp1590
(g15
g16
tp1591
as(g29
g263
I32
tp1592
(lp1593
(g54
g55
tp1594
as(g29
g440
I30
tp1595
(lp1596
(g396
g397
tp1597
as(g29
g1121
I68
tp1598
(lp1599
(g113
g114
tp1600
as(g38
g541
I109
tp1601
(lp1602
(g42
g43
tp1603
as(g2
g354
I50
tp1604
(lp1605
(g1539
g1540
tp1606
as(g29
g169
I133
tp1607
(lp1608
(g15
g16
tp1609
as(g2
S'apple_br'
p1610
I31
tp1611
(lp1612
(g103
g104
tp1613
as(g29
g628
I57
tp1614
(lp1615
(g6
g7
tp1616
a(g6
g7
tp1617
a(g6
g7
tp1618
as(g29
g146
I6
tp1619
(lp1620
(g6
g7
tp1621
as(g2
g418
I89
tp1622
(lp1623
(g15
g16
tp1624
as(g2
g150
I7
tp1625
(lp1626
(g73
g74
tp1627
as(g2
g158
I29
tp1628
(lp1629
(g42
g43
tp1630
as(g29
g582
I10
tp1631
(lp1632
(S'interrupting'
p1633
(lp1634
(S'IRRITATION'
p1635
g18
tp1636
a(g391
g18
tp1637
atp1638
as(g29
g497
I61
tp1639
(lp1640
(g54
g55
tp1641
as(g29
g209
I13
tp1642
(lp1643
(g212
g213
tp1644
as(g2
g783
I149
tp1645
(lp1646
(S'faintness'
p1647
(lp1648
(g192
g1541
tp1649
atp1650
as(g2
g564
I129
tp1651
(lp1652
(g113
g114
tp1653
as(g38
g1486
I22
tp1654
(lp1655
(g73
g74
tp1656
a(g73
g74
tp1657
as(g29
S'the_fisherman_and_his_wife'
p1658
I87
tp1659
(lp1660
(g273
g274
tp1661
as(g29
g666
I5
tp1662
(lp1663
(g54
g55
tp1664
as(g2
g1150
I56
tp1665
(lp1666
(g132
g133
tp1667
as(g29
g1268
I61
tp1668
(lp1669
(g15
g16
tp1670
as(g2
g66
I74
tp1671
(lp1672
(g874
g875
tp1673
as(g2
g100
I182
tp1674
(lp1675
(g113
g114
tp1676
as(g2
g241
I18
tp1677
(lp1678
(g15
g16
tp1679
as(g29
g657
I82
tp1680
(lp1681
(g15
g16
tp1682
as(g29
g251
I28
tp1683
(lp1684
(g54
g55
tp1685
as(g2
g418
I163
tp1686
(lp1687
(g447
g448
tp1688
a(g447
g448
tp1689
as(g2
g444
I21
tp1690
(lp1691
(g132
g133
tp1692
as(g2
g941
I146
tp1693
(lp1694
(g73
g74
tp1695
as(g29
g296
I29
tp1696
(lp1697
(g54
g55
tp1698
as(g2
g878
I75
tp1699
(lp1700
(g132
g133
tp1701
as(g29
g1140
I50
tp1702
(lp1703
(g103
g104
tp1704
as(g29
g1212
I10
tp1705
(lp1706
(g396
g397
tp1707
as(g2
g221
I39
tp1708
(lp1709
(g103
g104
tp1710
as(g2
g733
I14
tp1711
(lp1712
(g15
g16
tp1713
as(g29
g661
I97
tp1714
(lp1715
(g54
g55
tp1716
as(g2
g88
I1
tp1717
(lp1718
(g6
g7
tp1719
as(g2
g501
I78
tp1720
(lp1721
(g54
g55
tp1722
as(g2
g304
I114
tp1723
(lp1724
(g54
g55
tp1725
as(g2
g451
I29
tp1726
(lp1727
(g483
g484
tp1728
as(g2
g941
I120
tp1729
(lp1730
(g42
g43
tp1731
as(g2
g12
I186
tp1732
(lp1733
(g172
g173
tp1734
as(g29
g555
I13
tp1735
(lp1736
(g6
g7
tp1737
as(g2
g25
I63
tp1738
(lp1739
(g42
g43
tp1740
as(g2
g12
I443
tp1741
(lp1742
(g103
g104
tp1743
as(g29
S'the_frog-prince'
p1744
I15
tp1745
(lp1746
(g15
g16
tp1747
as(g29
g1076
I36
tp1748
(lp1749
(g15
g16
tp1750
as(g2
g444
I46
tp1751
(lp1752
(g15
g16
tp1753
as(g2
S'wicked_p'
p1754
I30
tp1755
(lp1756
(g113
g114
tp1757
as(g29
g146
I38
tp1758
(lp1759
(g672
g673
tp1760
as(g2
g3
I43
tp1761
(lp1762
(g6
g7
tp1763
as(g29
g568
I17
tp1764
(lp1765
(g1303
g1304
tp1766
as(g29
g383
I31
tp1767
(lp1768
(g15
g16
tp1769
as(g38
g1486
I227
tp1770
(lp1771
(g42
g43
tp1772
as(g38
S'he_tale_of_squirrel_nutkinMANCORR'
p1773
I19
tp1774
(lp1775
(g6
g7
tp1776
as(g2
g259
I31
tp1777
(lp1778
(g389
g390
tp1779
as(g29
g1290
I4
tp1780
(lp1781
(g54
g55
tp1782
as(g2
g100
I51
tp1783
(lp1784
(g73
g74
tp1785
as(g38
g39
I21
tp1786
(lp1787
(S'apologizing'
p1788
(lp1789
(S'REGRET'
p1790
g18
tp1791
atp1792
as(g2
g292
I88
tp1793
(lp1794
(g6
g7
tp1795
as(g29
g209
I45
tp1796
(lp1797
(g15
g16
tp1798
as(g29
g296
I74
tp1799
(lp1800
(g574
g575
tp1801
as(g29
g47
I2
tp1802
(lp1803
(g447
g448
tp1804
as(g29
g596
I97
tp1805
(lp1806
(g574
g575
tp1807
as(g2
g3
I89
tp1808
(lp1809
(g483
g484
tp1810
as(g2
g66
I124
tp1811
(lp1812
(g172
g173
tp1813
as(g2
g426
I49
tp1814
(lp1815
(g329
g330
tp1816
as(g2
g501
I152
tp1817
(lp1818
(g6
g7
tp1819
as(g29
g1002
I0
tp1820
(lp1821
(g273
g274
tp1822
as(g2
g1064
I40
tp1823
(lp1824
(g103
g104
tp1825
as(g29
g350
I18
tp1826
(lp1827
(g172
g173
tp1828
as(g29
g1076
I61
tp1829
(lp1830
(g6
g7
tp1831
a(g273
g274
tp1832
as(g29
g51
I26
tp1833
(lp1834
(g15
g16
tp1835
as(g2
g418
I157
tp1836
(lp1837
(g447
g448
tp1838
as(g29
g96
I13
tp1839
(lp1840
(g447
g448
tp1841
as(g2
g451
I70
tp1842
(lp1843
(g672
g673
tp1844
a(g672
g673
tp1845
as(g29
g628
I48
tp1846
(lp1847
(g6
g7
tp1848
a(g6
g7
tp1849
a(g6
g7
tp1850
as(g2
g292
I53
tp1851
(lp1852
(g6
g7
tp1853
as(g2
g304
I14
tp1854
(lp1855
(g172
g173
tp1856
as(g2
g217
I11
tp1857
(lp1858
(g172
g173
tp1859
as(g2
g88
I132
tp1860
(lp1861
(g54
g55
tp1862
as(g2
g150
I8
tp1863
(lp1864
(g339
g340
tp1865
as(g2
g3
I50
tp1866
(lp1867
(g6
g7
tp1868
a(g6
g7
tp1869
a(g6
g7
tp1870
as(g2
g12
I6
tp1871
(lp1872
(g1633
g1634
tp1873
as(g2
g221
I117
tp1874
(lp1875
(S'mocking'
p1876
(lp1877
(g950
g18
tp1878
atp1879
as(g29
g440
I46
tp1880
(lp1881
(g132
g133
tp1882
as(g38
g1486
I29
tp1883
(lp1884
(g1633
g1634
tp1885
as(g2
g519
I6
tp1886
(lp1887
(g42
g43
tp1888
as(g38
g541
I256
tp1889
(lp1890
(g396
g397
tp1891
as(g29
g666
I28
tp1892
(lp1893
(g15
g16
tp1894
as(g2
g221
I7
tp1895
(lp1896
(g389
g390
tp1897
as(g29
g692
I42
tp1898
(lp1899
(g54
g55
tp1900
as(g2
g88
I97
tp1901
(lp1902
(g103
g104
tp1903
as(g2
g509
I93
tp1904
(lp1905
(g813
g814
tp1906
a(g103
g104
tp1907
as(g2
g1097
I14
tp1908
(lp1909
(g447
g448
tp1910
a(g874
g875
tp1911
as(g2
g1329
I17
tp1912
(lp1913
(g447
g448
tp1914
as(g29
g628
I43
tp1915
(lp1916
(g813
g814
tp1917
a(g6
g7
tp1918
as(g2
g217
I16
tp1919
(lp1920
(g73
g74
tp1921
as(g2
g770
I6
tp1922
(lp1923
(g6
g7
tp1924
as(g29
g1286
I7
tp1925
(lp1926
(g284
g285
tp1927
as(g38
S'the_tale_of_tom_kitten'
p1928
I7
tp1929
(lp1930
(g329
g330
tp1931
as(g29
g696
I10
tp1932
(lp1933
(g103
g104
tp1934
as(g29
g162
I16
tp1935
(lp1936
(g483
g484
tp1937
as(g2
g12
I47
tp1938
(lp1939
(g15
g16
tp1940
as(g29
g169
I69
tp1941
(lp1942
(g54
g55
tp1943
as(g29
g1121
I122
tp1944
(lp1945
(g132
g133
tp1946
as(g2
g217
I66
tp1947
(lp1948
(g284
g285
tp1949
a(g172
g173
tp1950
as(g2
g3
I11
tp1951
(lp1952
(g42
g43
tp1953
as(g2
g100
I210
tp1954
(lp1955
(g132
g133
tp1956
as(g2
g259
I63
tp1957
(lp1958
(S'sweating'
p1959
(lp1960
(g105
g18
tp1961
a(S'DENIAL'
p1962
g18
tp1963
a(g576
g18
tp1964
a(g1446
g18
tp1965
a(g1446
g1541
tp1966
a(S'HATRED'
p1967
g18
tp1968
a(g61
g18
tp1969
a(g174
g18
tp1970
a(g200
g1541
tp1971
a(g1491
g1541
tp1972
a(g107
g9
tp1973
atp1974
as(g29
g1473
I23
tp1975
(lp1976
(g113
g114
tp1977
as(g38
S'the_tale_of_peter_rabbit'
p1978
I40
tp1979
(lp1980
(g329
g330
tp1981
a(g329
g330
tp1982
as(g2
g501
I117
tp1983
(lp1984
(S'clammy hands'
p1985
(lp1986
(g1232
g18
tp1987
atp1988
as(g29
g537
I11
tp1989
(lp1990
(g103
g104
tp1991
a(g113
g114
tp1992
as(g38
g326
I52
tp1993
(lp1994
(g15
g16
tp1995
as(g29
g779
I20
tp1996
(lp1997
(g6
g7
tp1998
as(g29
g110
I45
tp1999
(lp2000
(g54
g55
tp2001
as(g29
g628
I66
tp2002
(lp2003
(g6
g7
tp2004
a(g6
g7
tp2005
as(g2
g217
I57
tp2006
(lp2007
(g172
g173
tp2008
a(g172
g173
tp2009
as(g2
S'happy_fa'
p2010
I22
tp2011
(lp2012
(g54
g55
tp2013
as(g2
g88
I90
tp2014
(lp2015
(g6
g7
tp2016
as(g2
g770
I63
tp2017
(lp2018
(g6
g7
tp2019
a(g6
g7
tp2020
as(g29
g1048
I54
tp2021
(lp2022
(S'stepping back'
p2023
(lp2024
(g391
g18
tp2025
atp2026
as(g29
g1121
I101
tp2027
(lp2028
(g73
g74
tp2029
as(g2
g700
I40
tp2030
(lp2031
(g447
g448
tp2032
as(g2
g892
I17
tp2033
(lp2034
(g54
g55
tp2035
as(g38
g92
I170
tp2036
(lp2037
(S'arguing'
p2038
(lp2039
(g1377
g9
tp2040
a(g506
g18
tp2041
atp2042
as(g38
g1928
I25
tp2043
(lp2044
(g42
g43
tp2045
as(g2
S'shirtcol'
p2046
I26
tp2047
(lp2048
(g132
g133
tp2049
as(g29
g1041
I24
tp2050
(lp2051
(g447
g448
tp2052
as(g29
g51
I92
tp2053
(lp2054
(g813
g814
tp2055
as(g38
g1080
I70
tp2056
(lp2057
(g970
g971
tp2058
as(g38
g541
I33
tp2059
(lp2060
(g103
g104
tp2061
as(g2
g3
I64
tp2062
(lp2063
(g15
g16
tp2064
as(g2
g1243
I25
tp2065
(lp2066
(g54
g55
tp2067
as(g29
g692
I10
tp2068
(lp2069
(g15
g16
tp2070
as(g29
g1002
I9
tp2071
(lp2072
(g15
g16
tp2073
as(g2
g88
I65
tp2074
(lp2075
(g54
g55
tp2076
a(g54
g55
tp2077
as(g38
g611
I49
tp2078
(lp2079
(g42
g43
tp2080
as(g2
S'storm_sh'
p2081
I10
tp2082
(lp2083
(g103
g104
tp2084
as(g38
g541
I147
tp2085
(lp2086
(g483
g484
tp2087
as(g2
g100
I99
tp2088
(lp2089
(g73
g74
tp2090
a(g73
g74
tp2091
as(g29
S'the_three_languages'
p2092
I14
tp2093
(lp2094
(g1303
g1304
tp2095
as(g2
g12
I378
tp2096
(lp2097
(g339
g340
tp2098
as(g2
g1754
I12
tp2099
(lp2100
(S'kneeling'
p2101
(lp2102
(g190
g9
tp2103
atp2104
as(g2
g604
I149
tp2105
(lp2106
(g15
g16
tp2107
as(g29
g296
I38
tp2108
(lp2109
(S'turning away'
p2110
(lp2111
(g17
g58
tp2112
a(S'INDIFFERENCE'
p2113
g18
tp2114
a(g61
g18
tp2115
a(g143
g58
tp2116
atp2117
as(g29
g51
I163
tp2118
(lp2119
(g15
g16
tp2120
as(g2
g3
I61
tp2121
(lp2122
(g6
g7
tp2123
a(g6
g7
tp2124
as(g29
g497
I45
tp2125
(lp2126
(g15
g16
tp2127
as(g29
g169
I37
tp2128
(lp2129
(g396
g397
tp2130
a(g15
g16
tp2131
as(g29
g1473
I33
tp2132
(lp2133
(g15
g16
tp2134
as(g38
g39
I27
tp2135
(lp2136
(g120
g121
tp2137
as(g29
g406
I24
tp2138
(lp2139
(g15
g16
tp2140
as(g2
g322
I37
tp2141
(lp2142
(g15
g16
tp2143
as(g2
g418
I57
tp2144
(lp2145
(g371
g372
tp2146
as(g38
g1486
I220
tp2147
(lp2148
(g42
g43
tp2149
as(g29
g903
I13
tp2150
(lp2151
(g103
g104
tp2152
as(g2
g12
I478
tp2153
(lp2154
(g284
g285
tp2155
as(g2
g635
I105
tp2156
(lp2157
(g15
g16
tp2158
as(g29
g774
I20
tp2159
(lp2160
(g54
g55
tp2161
as(g2
g12
I260
tp2162
(lp2163
(g113
g114
tp2164
as(g38
S'the_tale_of_mrs_tiggy-winkleMANCORR'
p2165
I25
tp2166
(lp2167
(g1633
g1634
tp2168
as(g29
g628
I34
tp2169
(lp2170
(g15
g16
tp2171
as(g29
g657
I68
tp2172
(lp2173
(g113
g114
tp2174
as(g29
g1400
I41
tp2175
(lp2176
(g184
g185
tp2177
as(g38
g92
I152
tp2178
(lp2179
(g2038
g2039
tp2180
as(g29
g568
I54
tp2181
(lp2182
(g172
g173
tp2183
as(g38
g1486
I184
tp2184
(lp2185
(g389
g390
tp2186
as(g2
S'holger_d'
p2187
I30
tp2188
(lp2189
(g273
g274
tp2190
as(g29
g974
I49
tp2191
(lp2192
(g447
g448
tp2193
as(g2
g117
I38
tp2194
(lp2195
(g339
g340
tp2196
as(g2
g564
I130
tp2197
(lp2198
(g237
g238
tp2199
a(g6
g7
tp2200
as(g38
S'ginger_and_pickles'
p2201
I45
tp2202
(lp2203
(S'complimenting'
p2204
(lp2205
(g1025
g18
tp2206
atp2207
as(g2
g1312
I41
tp2208
(lp2209
(g447
g448
tp2210
as(g2
g221
I53
tp2211
(lp2212
(g54
g55
tp2213
as(g2
g733
I60
tp2214
(lp2215
(g6
g7
tp2216
a(g6
g7
tp2217
as(g2
S'drop_wat'
p2218
I5
tp2219
(lp2220
(g73
g74
tp2221
as(g2
S'cheerful'
p2222
I31
tp2223
(lp2224
(g103
g104
tp2225
a(g103
g104
tp2226
as(g38
g611
I31
tp2227
(lp2228
(g574
g575
tp2229
as(g29
g774
I13
tp2230
(lp2231
(g42
g43
tp2232
as(g38
g1080
I102
tp2233
(lp2234
(g447
g448
tp2235
as(g29
g624
I49
tp2236
(lp2237
(g15
g16
tp2238
as(g2
g1329
I31
tp2239
(lp2240
(g15
g16
tp2241
as(g29
g661
I16
tp2242
(lp2243
(g1023
g1024
tp2244
a(g73
g74
tp2245
as(g29
g251
I23
tp2246
(lp2247
(g132
g133
tp2248
as(g2
g418
I164
tp2249
(lp2250
(g447
g448
tp2251
as(g2
g700
I33
tp2252
(lp2253
(g54
g55
tp2254
as(g29
g1048
I17
tp2255
(lp2256
(g15
g16
tp2257
as(g2
g270
I67
tp2258
(lp2259
(g15
g16
tp2260
as(g2
g304
I39
tp2261
(lp2262
(g54
g55
tp2263
as(g2
g217
I80
tp2264
(lp2265
(g874
g875
tp2266
as(g2
g878
I78
tp2267
(lp2268
(g132
g133
tp2269
a(g273
g274
tp2270
as(g29
g251
I69
tp2271
(lp2272
(g15
g16
tp2273
as(g29
g169
I5
tp2274
(lp2275
(g284
g285
tp2276
as(g29
S'the_four_clever_brothers'
p2277
I40
tp2278
(lp2279
(g54
g55
tp2280
as(g2
g304
I117
tp2281
(lp2282
(g15
g16
tp2283
as(g29
g47
I16
tp2284
(lp2285
(g113
g114
tp2286
as(g38
g92
I19
tp2287
(lp2288
(g73
g74
tp2289
as(g2
g451
I2
tp2290
(lp2291
(g15
g16
tp2292
as(g2
S'daisy'
p2293
I64
tp2294
(lp2295
(g15
g16
tp2296
as(g2
g70
I44
tp2297
(lp2298
(g113
g114
tp2299
as(g29
g350
I4
tp2300
(lp2301
(S'coughing'
p2302
(lp2303
(g22
g18
tp2304
atp2305
as(g2
g509
I65
tp2306
(lp2307
(g396
g397
tp2308
as(g29
g296
I57
tp2309
(lp2310
(g1321
g1322
tp2311
as(g2
g418
I114
tp2312
(lp2313
(g447
g448
tp2314
as(g2
g100
I54
tp2315
(lp2316
(g73
g74
tp2317
a(g73
g74
tp2318
as(g2
g25
I85
tp2319
(lp2320
(g15
g16
tp2321
as(g2
g117
I6
tp2322
(lp2323
(g339
g340
tp2324
as(g29
g406
I17
tp2325
(lp2326
(g574
g575
tp2327
a(g113
g114
tp2328
as(g38
g1080
I84
tp2329
(lp2330
(g1489
g1490
tp2331
as(g2
g418
I32
tp2332
(lp2333
(g371
g372
tp2334
as(g2
g3
I82
tp2335
(lp2336
(g6
g7
tp2337
as(g38
g326
I17
tp2338
(lp2339
(g830
g831
tp2340
as(g2
g12
I423
tp2341
(lp2342
(g103
g104
tp2343
as(g29
g350
I45
tp2344
(lp2345
(g54
g55
tp2346
as(g2
g12
I107
tp2347
(lp2348
(g339
g340
tp2349
as(g29
g336
I4
tp2350
(lp2351
(g33
g34
tp2352
as(g2
g1097
I28
tp2353
(lp2354
(g447
g448
tp2355
as(g29
g422
I2
tp2356
(lp2357
(g42
g43
tp2358
as(g2
g2081
I15
tp2359
(lp2360
(S'grimacing'
p2361
(lp2362
(g61
g18
tp2363
a(g1491
g18
tp2364
atp2365
a(g389
g390
tp2366
as(g2
g635
I22
tp2367
(lp2368
(g33
g34
tp2369
as(g29
g137
I22
tp2370
(lp2371
(g73
g74
tp2372
as(g29
g146
I10
tp2373
(lp2374
(g6
g7
tp2375
as(g2
g770
I20
tp2376
(lp2377
(g6
g7
tp2378
a(g6
g7
tp2379
as(g2
g402
I6
tp2380
(lp2381
(g447
g448
tp2382
as(g2
g270
I99
tp2383
(lp2384
(g1303
g1304
tp2385
as(g2
g740
I35
tp2386
(lp2387
(g54
g55
tp2388
as(g2
g368
I81
tp2389
(lp2390
(g339
g340
tp2391
as(g2
g2222
I21
tp2392
(lp2393
(g54
g55
tp2394
as(g2
g221
I2
tp2395
(lp2396
(g42
g43
tp2397
as(g2
g304
I148
tp2398
(lp2399
(g15
g16
tp2400
as(g2
g783
I59
tp2401
(lp2402
(g15
g16
tp2403
as(g38
g1080
I109
tp2404
(lp2405
(g6
g7
tp2406
as(g2
g676
I34
tp2407
(lp2408
(S'criticism'
p2409
(lp2410
(g952
g18
tp2411
atp2412
as(g29
g336
I45
tp2413
(lp2414
(g813
g814
tp2415
as(g29
g854
I40
tp2416
(lp2417
(g15
g16
tp2418
as(g2
g1097
I11
tp2419
(lp2420
(g54
g55
tp2421
as(g38
g1101
I62
tp2422
(lp2423
(g339
g340
tp2424
as(g29
g628
I44
tp2425
(lp2426
(g15
g16
tp2427
as(g2
g12
I414
tp2428
(lp2429
(g284
g285
tp2430
as(g2
g228
I18
tp2431
(lp2432
(g33
g34
tp2433
as(g2
g564
I96
tp2434
(lp2435
(g672
g673
tp2436
as(g29
g162
I43
tp2437
(lp2438
(g483
g484
tp2439
as(g2
g2187
I44
tp2440
(lp2441
(g54
g55
tp2442
as(g29
g974
I39
tp2443
(lp2444
(g15
g16
tp2445
as(g2
g708
I80
tp2446
(lp2447
(g113
g114
tp2448
as(g29
g205
I36
tp2449
(lp2450
(g6
g7
tp2451
as(g29
g657
I4
tp2452
(lp2453
(g874
g875
tp2454
as(g29
g129
I62
tp2455
(lp2456
(g113
g114
tp2457
as(g2
g322
I0
tp2458
(lp2459
(g132
g133
tp2460
as(g2
g418
I18
tp2461
(lp2462
(g15
g16
tp2463
as(g38
g1080
I137
tp2464
(lp2465
(g42
g43
tp2466
as(g29
g696
I11
tp2467
(lp2468
(g273
g274
tp2469
as(g2
g304
I141
tp2470
(lp2471
(g42
g43
tp2472
as(g2
g88
I5
tp2473
(lp2474
(g6
g7
tp2475
as(g2
g501
I74
tp2476
(lp2477
(g396
g397
tp2478
as(g2
g490
I25
tp2479
(lp2480
(g339
g340
tp2481
as(g2
g676
I9
tp2482
(lp2483
(g1023
g1024
tp2484
a(g73
g74
tp2485
as(g29
g530
I35
tp2486
(lp2487
(g6
g7
tp2488
as(g2
g564
I9
tp2489
(lp2490
(S'moaning'
p2491
(lp2492
(g190
g18
tp2493
atp2494
as(g2
g1176
I30
tp2495
(lp2496
(g42
g43
tp2497
as(g2
S'tinderbx'
p2498
I9
tp2499
(lp2500
(g113
g114
tp2501
as(g2
g418
I182
tp2502
(lp2503
(g447
g448
tp2504
as(g29
g1121
I96
tp2505
(lp2506
(g132
g133
tp2507
as(g2
g892
I24
tp2508
(lp2509
(g15
g16
tp2510
as(g2
g12
I75
tp2511
(lp2512
(g113
g114
tp2513
as(g29
g1048
I35
tp2514
(lp2515
(g6
g7
tp2516
as(g2
g364
I83
tp2517
(lp2518
(g33
g34
tp2519
as(g29
g205
I15
tp2520
(lp2521
(g172
g173
tp2522
as(g2
g25
I145
tp2523
(lp2524
(g6
g7
tp2525
as(g29
g628
I21
tp2526
(lp2527
(g15
g16
tp2528
as(g2
g604
I167
tp2529
(lp2530
(g103
g104
tp2531
as(g2
g150
I25
tp2532
(lp2533
(g54
g55
tp2534
as(g29
g146
I42
tp2535
(lp2536
(g6
g7
tp2537
as(g2
g418
I101
tp2538
(lp2539
(g273
g274
tp2540
as(g29
g568
I29
tp2541
(lp2542
(g15
g16
tp2543
as(g2
g490
I95
tp2544
(lp2545
(g82
g83
tp2546
as(g2
g270
I3
tp2547
(lp2548
(g447
g448
tp2549
as(g2
g117
I9
tp2550
(lp2551
(g1375
g1376
tp2552
as(g2
g501
I81
tp2553
(lp2554
(g15
g16
tp2555
as(g2
g783
I73
tp2556
(lp2557
(g113
g114
tp2558
as(g29
g422
I65
tp2559
(lp2560
(g339
g340
tp2561
as(g2
g2498
I98
tp2562
(lp2563
(g15
g16
tp2564
as(g2
g941
I66
tp2565
(lp2566
(g73
g74
tp2567
as(g2
g1064
I44
tp2568
(lp2569
(g103
g104
tp2570
as(g29
g350
I22
tp2571
(lp2572
(g172
g173
tp2573
as(g2
g564
I54
tp2574
(lp2575
(g172
g173
tp2576
as(g29
g774
I58
tp2577
(lp2578
(g6
g7
tp2579
as(g29
g2092
I11
tp2580
(lp2581
(g574
g575
tp2582
as(g2
g708
I46
tp2583
(lp2584
(g15
g16
tp2585
as(g38
g2165
I43
tp2586
(lp2587
(g15
g16
tp2588
as(g29
S'the_mouse,_the_bird,_and_the_sausage'
p2589
I5
tp2590
(lp2591
(g948
g949
tp2592
as(g2
g217
I15
tp2593
(lp2594
(g73
g74
tp2595
as(g2
g878
I53
tp2596
(lp2597
(g273
g274
tp2598
as(g2
g154
I101
tp2599
(lp2600
(g15
g16
tp2601
as(g29
g568
I4
tp2602
(lp2603
(g120
g121
tp2604
as(g29
g383
I40
tp2605
(lp2606
(g15
g16
tp2607
as(g29
g162
I11
tp2608
(lp2609
(g483
g484
tp2610
as(g2
g117
I16
tp2611
(lp2612
(g15
g16
tp2613
as(g2
g604
I93
tp2614
(lp2615
(g54
g55
tp2616
as(g2
g304
I88
tp2617
(lp2618
(g15
g16
tp2619
as(g29
g774
I65
tp2620
(lp2621
(g6
g7
tp2622
a(g6
g7
tp2623
as(g2
g322
I32
tp2624
(lp2625
(g15
g16
tp2626
as(g2
g311
I10
tp2627
(lp2628
(g103
g104
tp2629
a(g103
g104
tp2630
as(g29
g666
I16
tp2631
(lp2632
(g447
g448
tp2633
a(g54
g55
tp2634
as(g2
g221
I11
tp2635
(lp2636
(g1133
g1134
tp2637
as(g29
S'82_gambling_hansel'
p2638
I5
tp2639
(lp2640
(g113
g114
tp2641
as(g29
g1268
I48
tp2642
(lp2643
(g54
g55
tp2644
as(g2
g368
I184
tp2645
(lp2646
(g284
g285
tp2647
a(g284
g285
tp2648
as(g2
g100
I187
tp2649
(lp2650
(g73
g74
tp2651
as(g29
g555
I41
tp2652
(lp2653
(g6
g7
tp2654
a(g6
g7
tp2655
as(g2
g270
I136
tp2656
(lp2657
(g447
g448
tp2658
as(g2
g1329
I13
tp2659
(lp2660
(g371
g372
tp2661
as(g29
g560
I11
tp2662
(lp2663
(g54
g55
tp2664
as(g2
g878
I10
tp2665
(lp2666
(g672
g673
tp2667
as(g2
g322
I45
tp2668
(lp2669
(g132
g133
tp2670
a(g15
g16
tp2671
a(g15
g16
tp2672
a(g172
g173
tp2673
as(g29
g1041
I22
tp2674
(lp2675
(S'wanting to hide'
p2676
(lp2677
(S'SURPRISE/SHOCK'
p2678
g85
tp2679
a(g174
g85
tp2680
atp2681
as(g29
g1076
I64
tp2682
(lp2683
(g212
g213
tp2684
as(g29
g383
I49
tp2685
(lp2686
(g15
g16
tp2687
as(g2
g490
I105
tp2688
(lp2689
(g813
g814
tp2690
as(g2
g70
I3
tp2691
(lp2692
(g113
g114
tp2693
as(g29
g205
I47
tp2694
(lp2695
(g574
g575
tp2696
a(g15
g16
tp2697
as(g2
g292
I110
tp2698
(lp2699
(g113
g114
tp2700
as(g29
g1041
I39
tp2701
(lp2702
(g447
g448
tp2703
as(g29
g840
I17
tp2704
(lp2705
(g54
g55
tp2706
as(g2
g154
I92
tp2707
(lp2708
(g2110
g2111
tp2709
as(g29
g596
I15
tp2710
(lp2711
(g73
g74
tp2712
as(g2
g941
I124
tp2713
(lp2714
(g15
g16
tp2715
as(g2
g3
I94
tp2716
(lp2717
(g42
g43
tp2718
as(g2
g733
I51
tp2719
(lp2720
(g15
g16
tp2721
as(g2
g604
I18
tp2722
(lp2723
(g329
g330
tp2724
as(g29
g110
I41
tp2725
(lp2726
(g212
g213
tp2727
as(g29
S'the_elves_and_the_shoemaker'
p2728
I21
tp2729
(lp2730
(g6
g7
tp2731
a(g6
g7
tp2732
as(g2
g241
I28
tp2733
(lp2734
(g172
g173
tp2735
as(g2
g117
I159
tp2736
(lp2737
(g1303
g1304
tp2738
as(g29
g251
I18
tp2739
(lp2740
(g113
g114
tp2741
as(g29
g1121
I89
tp2742
(lp2743
(g1089
g1090
tp2744
as(g29
g1582
I12
tp2745
(lp2746
(g15
g16
tp2747
as(g2
g66
I14
tp2748
(lp2749
(g15
g16
tp2750
as(g2
g12
I80
tp2751
(lp2752
(g42
g43
tp2753
as(g29
g336
I109
tp2754
(lp2755
(g73
g74
tp2756
a(g6
g7
tp2757
as(g2
g708
I78
tp2758
(lp2759
(g54
g55
tp2760
as(g29
g1190
I25
tp2761
(lp2762
(g15
g16
tp2763
as(g2
g25
I154
tp2764
(lp2765
(g284
g285
tp2766
as(g2
g604
I174
tp2767
(lp2768
(g172
g173
tp2769
as(g2
g501
I106
tp2770
(lp2771
(g54
g55
tp2772
as(g29
g596
I32
tp2773
(lp2774
(g15
g16
tp2775
as(g2
g418
I108
tp2776
(lp2777
(g447
g448
tp2778
as(g29
g1140
I56
tp2779
(lp2780
(g54
g55
tp2781
as(g2
g158
I78
tp2782
(lp2783
(g2110
g2111
tp2784
as(g2
g519
I40
tp2785
(lp2786
(g73
g74
tp2787
as(g38
g1486
I246
tp2788
(lp2789
(g6
g7
tp2790
as(g2
g25
I71
tp2791
(lp2792
(g273
g274
tp2793
as(g2
g501
I88
tp2794
(lp2795
(g113
g114
tp2796
as(g29
g406
I35
tp2797
(lp2798
(g15
g16
tp2799
as(g29
g47
I23
tp2800
(lp2801
(g113
g114
tp2802
as(g2
g676
I7
tp2803
(lp2804
(g54
g55
tp2805
as(g29
g422
I74
tp2806
(lp2807
(g15
g16
tp2808
as(g2
g3
I68
tp2809
(lp2810
(g6
g7
tp2811
a(g6
g7
tp2812
as(g29
g779
I7
tp2813
(lp2814
(g54
g55
tp2815
as(g29
g596
I65
tp2816
(lp2817
(g574
g575
tp2818
as(g2
g304
I205
tp2819
(lp2820
(g54
g55
tp2821
as(g29
g350
I31
tp2822
(lp2823
(g396
g397
tp2824
as(g29
g1744
I5
tp2825
(lp2826
(g172
g173
tp2827
as(g29
g1121
I118
tp2828
(lp2829
(g6
g7
tp2830
as(g29
g169
I127
tp2831
(lp2832
(g54
g55
tp2833
as(g2
g12
I326
tp2834
(lp2835
(g237
g238
tp2836
as(g29
S'49_the_six_swans'
p2837
I42
tp2838
(lp2839
(g103
g104
tp2840
as(g29
g628
I7
tp2841
(lp2842
(g103
g104
tp2843
as(g2
g564
I73
tp2844
(lp2845
(g2491
g2492
tp2846
as(g29
g1658
I111
tp2847
(lp2848
(g15
g16
tp2849
as(g2
g158
I55
tp2850
(lp2851
(g103
g104
tp2852
as(g29
g383
I17
tp2853
(lp2854
(g132
g133
tp2855
as(g2
g643
I85
tp2856
(lp2857
(g15
g16
tp2858
as(g29
g169
I41
tp2859
(lp2860
(g73
g74
tp2861
as(g2
g25
I80
tp2862
(lp2863
(g42
g43
tp2864
as(g2
g12
I264
tp2865
(lp2866
(g15
g16
tp2867
as(g2
g12
I521
tp2868
(lp2869
(g874
g875
tp2870
as(g29
g406
I28
tp2871
(lp2872
(g42
g43
tp2873
as(g2
g158
I128
tp2874
(lp2875
(g15
g16
tp2876
as(g38
g541
I60
tp2877
(lp2878
(g389
g390
tp2879
as(g2
g426
I43
tp2880
(lp2881
(g113
g114
tp2882
as(g2
g1064
I34
tp2883
(lp2884
(g389
g390
tp2885
as(g2
g564
I36
tp2886
(lp2887
(g132
g133
tp2888
as(g2
g66
I32
tp2889
(lp2890
(g73
g74
tp2891
as(g2
g364
I8
tp2892
(lp2893
(g33
g34
tp2894
as(g38
g2165
I29
tp2895
(lp2896
(g42
g43
tp2897
as(g2
g604
I128
tp2898
(lp2899
(g6
g7
tp2900
as(g29
g1400
I45
tp2901
(lp2902
(g396
g397
tp2903
a(g574
g575
tp2904
as(g29
g661
I15
tp2905
(lp2906
(g73
g74
tp2907
as(g2
g322
I196
tp2908
(lp2909
(g284
g285
tp2910
as(g29
g568
I50
tp2911
(lp2912
(g329
g330
tp2913
a(g15
g16
tp2914
as(g2
g259
I64
tp2915
(lp2916
(g6
g7
tp2917
as(g2
g402
I11
tp2918
(lp2919
(g447
g448
tp2920
a(g54
g55
tp2921
as(g2
g270
I102
tp2922
(lp2923
(g329
g330
tp2924
as(g29
g30
I13
tp2925
(lp2926
(g42
g43
tp2927
a(g42
g43
tp2928
a(g42
g43
tp2929
a(g42
g43
tp2930
as(g2
g12
I305
tp2931
(lp2932
(g113
g114
tp2933
as(g2
g740
I38
tp2934
(lp2935
(g970
g971
tp2936
as(g38
g1486
I23
tp2937
(lp2938
(g284
g285
tp2939
as(g2
g2498
I73
tp2940
(lp2941
(g54
g55
tp2942
as(g38
S'the_tale_of_timmy_tiptoes'
p2943
I65
tp2944
(lp2945
(g212
g213
tp2946
as(g2
g12
I194
tp2947
(lp2948
(g42
g43
tp2949
as(g2
g1150
I63
tp2950
(lp2951
(g273
g274
tp2952
as(g2
g12
I451
tp2953
(lp2954
(g15
g16
tp2955
as(g2
g228
I71
tp2956
(lp2957
(g329
g330
tp2958
as(g2
g66
I75
tp2959
(lp2960
(g42
g43
tp2961
as(g2
g100
I137
tp2962
(lp2963
(g1303
g1304
tp2964
as(g2
g12
I148
tp2965
(lp2966
(g54
g55
tp2967
as(g29
S'the_fox_and_the_cat'
p2968
I17
tp2969
(lp2970
(g15
g16
tp2971
as(g38
g868
I16
tp2972
(lp2973
(g42
g43
tp2974
as(g2
g117
I134
tp2975
(lp2976
(g273
g274
tp2977
as(g2
g2010
I27
tp2978
(lp2979
(g371
g372
tp2980
as(g2
g12
I43
tp2981
(lp2982
(g42
g43
tp2983
as(g38
g541
I183
tp2984
(lp2985
(g329
g330
tp2986
as(g2
g490
I27
tp2987
(lp2988
(g284
g285
tp2989
as(g29
g1048
I21
tp2990
(lp2991
(g15
g16
tp2992
as(g2
g117
I53
tp2993
(lp2994
(g132
g133
tp2995
as(g29
g2837
I10
tp2996
(lp2997
(g113
g114
tp2998
as(g2
g292
I96
tp2999
(lp3000
(g389
g390
tp3001
as(g2
g783
I141
tp3002
(lp3003
(g1463
g1464
tp3004
a(g54
g55
tp3005
as(g2
g418
I23
tp3006
(lp3007
(g15
g16
tp3008
a(g113
g114
tp3009
as(g29
g1212
I9
tp3010
(lp3011
(g15
g16
tp3012
as(g38
g541
I225
tp3013
(lp3014
(g120
g121
tp3015
as(g2
g708
I152
tp3016
(lp3017
(g73
g74
tp3018
as(g29
g169
I58
tp3019
(lp3020
(g54
g55
tp3021
as(g38
g1978
I38
tp3022
(lp3023
(g42
g43
tp3024
as(g2
g3
I79
tp3025
(lp3026
(g6
g7
tp3027
as(g29
g1121
I27
tp3028
(lp3029
(g113
g114
tp3030
as(g2
g117
I46
tp3031
(lp3032
(g42
g43
tp3033
as(g29
g600
I15
tp3034
(lp3035
(g33
g34
tp3036
a(g15
g16
tp3037
as(g29
g560
I44
tp3038
(lp3039
(g329
g330
tp3040
a(g15
g16
tp3041
as(g2
g635
I69
tp3042
(lp3043
(g103
g104
tp3044
as(g29
g296
I16
tp3045
(lp3046
(g574
g575
tp3047
a(g15
g16
tp3048
as(g38
g1297
I76
tp3049
(lp3050
(g1633
g1634
tp3051
a(g329
g330
tp3052
as(g38
g1080
I35
tp3053
(lp3054
(S'gossiping'
p3055
(lp3056
(g950
g18
tp3057
atp3058
as(g29
g263
I76
tp3059
(lp3060
(g73
g74
tp3061
as(g2
g270
I80
tp3062
(lp3063
(g15
g16
tp3064
as(g29
g458
I40
tp3065
(lp3066
(g447
g448
tp3067
as(g2
g125
I109
tp3068
(lp3069
(g54
g55
tp3070
as(g29
g628
I30
tp3071
(lp3072
(g6
g7
tp3073
as(g29
g146
I39
tp3074
(lp3075
(g6
g7
tp3076
as(g2
g3
I40
tp3077
(lp3078
(g6
g7
tp3079
a(g6
g7
tp3080
a(g6
g7
tp3081
as(g29
g1468
I38
tp3082
(lp3083
(g54
g55
tp3084
as(g2
g25
I89
tp3085
(lp3086
(g15
g16
tp3087
as(g2
g304
I106
tp3088
(lp3089
(g15
g16
tp3090
as(g29
g537
I42
tp3091
(lp3092
(g15
g16
tp3093
as(g2
g70
I36
tp3094
(lp3095
(g113
g114
tp3096
as(g29
g1002
I3
tp3097
(lp3098
(S'trembling hands'
p3099
(lp3100
(S'RELIEF'
p3101
g18
tp3102
a(g196
g18
tp3103
atp3104
a(g273
g274
tp3105
as(g2
g228
I103
tp3106
(lp3107
(g54
g55
tp3108
as(g29
g537
I91
tp3109
(lp3110
(g389
g390
tp3111
as(g2
g368
I202
tp3112
(lp3113
(g54
g55
tp3114
as(g2
g418
I146
tp3115
(lp3116
(g447
g448
tp3117
as(g2
g509
I19
tp3118
(lp3119
(g15
g16
tp3120
as(g29
g110
I18
tp3121
(lp3122
(g15
g16
tp3123
as(g2
g1754
I6
tp3124
(lp3125
(g284
g285
tp3126
as(g29
g628
I49
tp3127
(lp3128
(g6
g7
tp3129
as(g29
g296
I44
tp3130
(lp3131
(g15
g16
tp3132
as(g29
g560
I21
tp3133
(lp3134
(g113
g114
tp3135
as(g2
g564
I127
tp3136
(lp3137
(g113
g114
tp3138
as(g2
g150
I15
tp3139
(lp3140
(g339
g340
tp3141
as(g2
g3
I51
tp3142
(lp3143
(g6
g7
tp3144
a(g6
g7
tp3145
as(g2
g270
I35
tp3146
(lp3147
(g42
g43
tp3148
as(g29
g568
I57
tp3149
(lp3150
(g73
g74
tp3151
as(g2
g221
I116
tp3152
(lp3153
(g132
g133
tp3154
as(g29
g596
I19
tp3155
(lp3156
(g54
g55
tp3157
as(g2
S'emperor'
p3158
I74
tp3159
(lp3160
(g132
g133
tp3161
as(g29
g51
I111
tp3162
(lp3163
(g132
g133
tp3164
as(g2
g154
I50
tp3165
(lp3166
(g54
g55
tp3167
as(g2
g66
I135
tp3168
(lp3169
(g273
g274
tp3170
as(g2
g70
I59
tp3171
(lp3172
(g73
g74
tp3173
as(g2
g25
I16
tp3174
(lp3175
(g447
g448
tp3176
as(g2
g88
I98
tp3177
(lp3178
(g6
g7
tp3179
a(g6
g7
tp3180
as(g2
g509
I92
tp3181
(lp3182
(g15
g16
tp3183
as(g38
g541
I124
tp3184
(lp3185
(g54
g55
tp3186
as(g2
g100
I190
tp3187
(lp3188
(g82
g83
tp3189
as(g29
g129
I26
tp3190
(lp3191
(g15
g16
tp3192
as(g2
g12
I410
tp3193
(lp3194
(g103
g104
tp3195
as(g29
g657
I74
tp3196
(lp3197
(g15
g16
tp3198
as(g2
g635
I37
tp3199
(lp3200
(g33
g34
tp3201
as(g29
g639
I15
tp3202
(lp3203
(g54
g55
tp3204
as(g29
g568
I32
tp3205
(lp3206
(g15
g16
tp3207
as(g29
g263
I44
tp3208
(lp3209
(g73
g74
tp3210
a(g212
g213
tp3211
as(g2
g117
I60
tp3212
(lp3213
(g874
g875
tp3214
as(g29
g903
I12
tp3215
(lp3216
(g103
g104
tp3217
as(g38
g541
I25
tp3218
(lp3219
(g997
g998
tp3220
as(g2
g259
I0
tp3221
(lp3222
(g42
g43
tp3223
as(g2
g1150
I41
tp3224
(lp3225
(g874
g875
tp3226
as(g2
g12
I497
tp3227
(lp3228
(g132
g133
tp3229
as(g2
g509
I84
tp3230
(lp3231
(g15
g16
tp3232
as(g2
g770
I108
tp3233
(lp3234
(g6
g7
tp3235
as(g29
g440
I64
tp3236
(lp3237
(g874
g875
tp3238
as(g2
g158
I169
tp3239
(lp3240
(g804
g805
tp3241
a(g389
g390
tp3242
a(g15
g16
tp3243
as(g29
g537
I10
tp3244
(lp3245
(g15
g16
tp3246
as(g29
g422
I36
tp3247
(lp3248
(g212
g213
tp3249
as(g29
g779
I21
tp3250
(lp3251
(g6
g7
tp3252
as(g2
g117
I144
tp3253
(lp3254
(g113
g114
tp3255
as(g29
g560
I39
tp3256
(lp3257
(g132
g133
tp3258
as(g29
g530
I47
tp3259
(lp3260
(g15
g16
tp3261
as(g2
g418
I178
tp3262
(lp3263
(g447
g448
tp3264
as(g29
g582
I32
tp3265
(lp3266
(g396
g397
tp3267
a(g15
g16
tp3268
as(g29
g458
I33
tp3269
(lp3270
(g54
g55
tp3271
as(g2
g117
I71
tp3272
(lp3273
(g15
g16
tp3274
a(g15
g16
tp3275
as(g38
g541
I103
tp3276
(lp3277
(g284
g285
tp3278
a(g82
g83
tp3279
as(g29
g628
I17
tp3280
(lp3281
(g6
g7
tp3282
as(g29
g657
I19
tp3283
(lp3284
(g1539
g1540
tp3285
as(g29
g146
I46
tp3286
(lp3287
(g6
g7
tp3288
as(g29
g666
I35
tp3289
(lp3290
(g15
g16
tp3291
as(g29
g2277
I38
tp3292
(lp3293
(g15
g16
tp3294
as(g2
g158
I150
tp3295
(lp3296
(g396
g397
tp3297
a(g396
g397
tp3298
a(g103
g104
tp3299
as(g2
g3
I65
tp3300
(lp3301
(g6
g7
tp3302
as(g2
g12
I122
tp3303
(lp3304
(g42
g43
tp3305
as(g2
g304
I176
tp3306
(lp3307
(g54
g55
tp3308
as(g29
g1400
I24
tp3309
(lp3310
(g42
g43
tp3311
as(g2
g418
I133
tp3312
(lp3313
(g447
g448
tp3314
as(g29
g1121
I125
tp3315
(lp3316
(g15
g16
tp3317
as(g29
g497
I126
tp3318
(lp3319
(g54
g55
tp3320
as(g38
g2165
I47
tp3321
(lp3322
(g329
g330
tp3323
as(g29
g628
I8
tp3324
(lp3325
(g54
g55
tp3326
a(g54
g55
tp3327
as(g29
g657
I42
tp3328
(lp3329
(g54
g55
tp3330
as(g2
g564
I68
tp3331
(lp3332
(g113
g114
tp3333
a(g113
g114
tp3334
as(g2
g150
I16
tp3335
(lp3336
(g339
g340
tp3337
as(g29
g146
I29
tp3338
(lp3339
(g389
g390
tp3340
as(g29
g974
I11
tp3341
(lp3342
(g132
g133
tp3343
as(g2
g270
I16
tp3344
(lp3345
(S'asking questions'
p3346
(lp3347
(g1491
g18
tp3348
atp3349
as(g29
g497
I12
tp3350
(lp3351
(g2110
g2111
tp3352
as(g2
g354
I31
tp3353
(lp3354
(g113
g114
tp3355
as(g2
g292
I75
tp3356
(lp3357
(g33
g34
tp3358
as(g29
g774
I69
tp3359
(lp3360
(g6
g7
tp3361
as(g2
g941
I87
tp3362
(lp3363
(g874
g875
tp3364
as(g29
g346
I78
tp3365
(lp3366
(g33
g34
tp3367
as(g2
g25
I25
tp3368
(lp3369
(g73
g74
tp3370
as(g2
g501
I151
tp3371
(lp3372
(g15
g16
tp3373
as(g2
g12
I465
tp3374
(lp3375
(g15
g16
tp3376
as(g2
g1064
I31
tp3377
(lp3378
(g389
g390
tp3379
as(g2
g88
I105
tp3380
(lp3381
(g6
g7
tp3382
as(g2
g783
I54
tp3383
(lp3384
(g15
g16
tp3385
as(g2
g1610
I21
tp3386
(lp3387
(g15
g16
tp3388
as(g2
g217
I24
tp3389
(lp3390
(g82
g83
tp3391
as(g2
g564
I109
tp3392
(lp3393
(g54
g55
tp3394
as(g2
g158
I27
tp3395
(lp3396
(g15
g16
tp3397
as(g38
g1486
I185
tp3398
(lp3399
(g15
g16
tp3400
as(g29
g1048
I7
tp3401
(lp3402
(g54
g55
tp3403
as(g38
S'the_story_of_a_fierce_bad_rabbit'
p3404
I17
tp3405
(lp3406
(g73
g74
tp3407
as(g29
g288
I17
tp3408
(lp3409
(g15
g16
tp3410
as(g2
g217
I74
tp3411
(lp3412
(g284
g285
tp3413
as(g29
g596
I63
tp3414
(lp3415
(g54
g55
tp3416
as(g38
S'the_tale_of_jemima_puddle-duck'
p3417
I10
tp3418
(lp3419
(g113
g114
tp3420
as(g2
g1243
I46
tp3421
(lp3422
(g339
g340
tp3423
as(g29
g1551
I40
tp3424
(lp3425
(g103
g104
tp3426
as(g2
g66
I153
tp3427
(lp3428
(g672
g673
tp3429
as(g2
g304
I130
tp3430
(lp3431
(g15
g16
tp3432
as(g2
S'angel'
p3433
I14
tp3434
(lp3435
(g970
g971
tp3436
as(g2
g783
I45
tp3437
(lp3438
(g15
g16
tp3439
as(g38
g1486
I94
tp3440
(lp3441
(g329
g330
tp3442
as(g29
g779
I44
tp3443
(lp3444
(g103
g104
tp3445
as(g2
g12
I139
tp3446
(lp3447
(g113
g114
tp3448
as(g29
g497
I139
tp3449
(lp3450
(g15
g16
tp3451
as(g2
g444
I31
tp3452
(lp3453
(g15
g16
tp3454
as(g29
g1121
I11
tp3455
(lp3456
(g73
g74
tp3457
as(g2
g892
I25
tp3458
(lp3459
(g73
g74
tp3460
as(g29
g596
I62
tp3461
(lp3462
(g54
g55
tp3463
as(g2
g750
I18
tp3464
(lp3465
(g339
g340
tp3466
as(g2
g364
I137
tp3467
(lp3468
(g132
g133
tp3469
as(g2
g25
I75
tp3470
(lp3471
(g6
g7
tp3472
a(g389
g390
tp3473
as(g2
g88
I63
tp3474
(lp3475
(g6
g7
tp3476
as(g29
g296
I85
tp3477
(lp3478
(g132
g133
tp3479
as(g38
g1080
I78
tp3480
(lp3481
(g1489
g1490
tp3482
as(g38
g326
I59
tp3483
(lp3484
(g329
g330
tp3485
as(g2
g12
I52
tp3486
(lp3487
(g113
g114
tp3488
as(g29
g1395
I14
tp3489
(lp3490
(g132
g133
tp3491
as(g2
g635
I78
tp3492
(lp3493
(g54
g55
tp3494
as(g2
g322
I38
tp3495
(lp3496
(g396
g397
tp3497
a(g15
g16
tp3498
as(g38
g1080
I56
tp3499
(lp3500
(g15
g16
tp3501
as(g2
g451
I85
tp3502
(lp3503
(g54
g55
tp3504
as(g29
g2092
I6
tp3505
(lp3506
(g15
g16
tp3507
as(g38
g1080
I95
tp3508
(lp3509
(g447
g448
tp3510
as(g2
g783
I161
tp3511
(lp3512
(g73
g74
tp3513
a(g15
g16
tp3514
as(g29
g51
I171
tp3515
(lp3516
(g15
g16
tp3517
as(g29
g251
I109
tp3518
(lp3519
(g54
g55
tp3520
as(g2
g2498
I26
tp3521
(lp3522
(g42
g43
tp3523
as(g2
g708
I132
tp3524
(lp3525
(g113
g114
tp3526
as(g29
g1290
I2
tp3527
(lp3528
(g33
g34
tp3529
as(g29
g129
I144
tp3530
(lp3531
(g103
g104
tp3532
as(g29
g497
I23
tp3533
(lp3534
(g1539
g1540
tp3535
as(g2
g88
I38
tp3536
(lp3537
(g371
g372
tp3538
as(g2
g368
I127
tp3539
(lp3540
(g284
g285
tp3541
a(g33
g34
tp3542
as(g2
g2222
I15
tp3543
(lp3544
(g54
g55
tp3545
as(g2
g418
I33
tp3546
(lp3547
(g113
g114
tp3548
as(g38
g541
I48
tp3549
(lp3550
(g42
g43
tp3551
as(g38
g2943
I36
tp3552
(lp3553
(g389
g390
tp3554
as(g29
g346
I71
tp3555
(lp3556
(g483
g484
tp3557
as(g2
g1150
I18
tp3558
(lp3559
(g6
g7
tp3560
as(g38
g868
I37
tp3561
(lp3562
(g447
g448
tp3563
as(g2
g12
I422
tp3564
(lp3565
(g103
g104
tp3566
as(g2
g304
I162
tp3567
(lp3568
(g284
g285
tp3569
as(g2
g564
I40
tp3570
(lp3571
(g15
g16
tp3572
as(g2
g770
I69
tp3573
(lp3574
(g6
g7
tp3575
as(g2
g418
I151
tp3576
(lp3577
(g447
g448
tp3578
as(g29
g110
I21
tp3579
(lp3580
(g483
g484
tp3581
as(g29
g497
I104
tp3582
(lp3583
(g574
g575
tp3584
as(g29
g774
I15
tp3585
(lp3586
(g42
g43
tp3587
as(g29
g2589
I19
tp3588
(lp3589
(g113
g114
tp3590
as(g29
g1400
I33
tp3591
(lp3592
(g103
g104
tp3593
as(g29
g383
I34
tp3594
(lp3595
(g15
g16
tp3596
as(g38
g541
I220
tp3597
(lp3598
(g113
g114
tp3599
as(g2
g402
I7
tp3600
(lp3601
(g874
g875
tp3602
as(g29
g497
I62
tp3603
(lp3604
(g54
g55
tp3605
as(g2
g604
I83
tp3606
(lp3607
(g15
g16
tp3608
as(g2
g241
I32
tp3609
(lp3610
(g172
g173
tp3611
as(g2
g1312
I33
tp3612
(lp3613
(g54
g55
tp3614
as(g29
g666
I26
tp3615
(lp3616
(g997
g998
tp3617
as(g2
g1150
I59
tp3618
(lp3619
(g42
g43
tp3620
as(g2
g509
I87
tp3621
(lp3622
(g54
g55
tp3623
as(g2
g88
I31
tp3624
(lp3625
(g132
g133
tp3626
a(g54
g55
tp3627
as(g2
g676
I35
tp3628
(lp3629
(g73
g74
tp3630
as(g38
g3417
I90
tp3631
(lp3632
(g73
g74
tp3633
as(g29
g624
I57
tp3634
(lp3635
(g15
g16
tp3636
as(g29
g628
I45
tp3637
(lp3638
(g483
g484
tp3639
a(g483
g484
tp3640
as(g2
g228
I21
tp3641
(lp3642
(g132
g133
tp3643
as(g29
g146
I18
tp3644
(lp3645
(g6
g7
tp3646
as(g2
g418
I172
tp3647
(lp3648
(g447
g448
tp3649
as(g29
g162
I42
tp3650
(lp3651
(g54
g55
tp3652
as(g2
g259
I83
tp3653
(lp3654
(g42
g43
tp3655
as(g2
g418
I19
tp3656
(lp3657
(g212
g213
tp3658
as(g38
g1773
I57
tp3659
(lp3660
(g54
g55
tp3661
as(g2
g259
I5
tp3662
(lp3663
(g15
g16
tp3664
as(g2
g941
I139
tp3665
(lp3666
(g73
g74
tp3667
as(g29
g497
I99
tp3668
(lp3669
(g15
g16
tp3670
as(g38
g1080
I117
tp3671
(lp3672
(g447
g448
tp3673
as(g2
g241
I6
tp3674
(lp3675
(g339
g340
tp3676
as(g29
g560
I40
tp3677
(lp3678
(g212
g213
tp3679
as(g2
g88
I80
tp3680
(lp3681
(g6
g7
tp3682
as(g2
g1176
I31
tp3683
(lp3684
(g42
g43
tp3685
as(g29
g1658
I46
tp3686
(lp3687
(g15
g16
tp3688
as(g29
g1121
I99
tp3689
(lp3690
(g15
g16
tp3691
as(g2
g66
I4
tp3692
(lp3693
(g6
g7
tp3694
as(g29
g1048
I34
tp3695
(lp3696
(g6
g7
tp3697
a(g6
g7
tp3698
as(g29
g582
I39
tp3699
(lp3700
(g15
g16
tp3701
as(g29
g497
I72
tp3702
(lp3703
(g132
g133
tp3704
as(g2
g25
I144
tp3705
(lp3706
(g42
g43
tp3707
as(g2
g564
I90
tp3708
(lp3709
(g113
g114
tp3710
as(g2
g154
I127
tp3711
(lp3712
(g15
g16
tp3713
as(g2
g564
I115
tp3714
(lp3715
(g54
g55
tp3716
as(g29
g1290
I9
tp3717
(lp3718
(g396
g397
tp3719
as(g2
g25
I93
tp3720
(lp3721
(g273
g274
tp3722
as(g2
g368
I112
tp3723
(lp3724
(g54
g55
tp3725
as(g2
g304
I102
tp3726
(lp3727
(g15
g16
tp3728
as(g38
g1080
I92
tp3729
(lp3730
(g447
g448
tp3731
as(g2
g3
I90
tp3732
(lp3733
(g73
g74
tp3734
as(g2
g941
I65
tp3735
(lp3736
(g73
g74
tp3737
as(g38
g1773
I64
tp3738
(lp3739
(g6
g7
tp3740
as(g2
g1064
I45
tp3741
(lp3742
(g15
g16
tp3743
as(g29
g2638
I47
tp3744
(lp3745
(g970
g971
tp3746
as(g29
g1744
I27
tp3747
(lp3748
(g33
g34
tp3749
as(g29
g774
I37
tp3750
(lp3751
(g6
g7
tp3752
as(g2
g490
I49
tp3753
(lp3754
(g54
g55
tp3755
as(g2
g451
I67
tp3756
(lp3757
(g73
g74
tp3758
as(g2
g100
I85
tp3759
(lp3760
(g1089
g1090
tp3761
as(g38
g1297
I30
tp3762
(lp3763
(g1633
g1634
tp3764
as(g29
g2837
I48
tp3765
(lp3766
(g103
g104
tp3767
as(g29
g2589
I10
tp3768
(lp3769
(g33
g34
tp3770
as(g2
g228
I53
tp3771
(lp3772
(g132
g133
tp3773
as(g29
g974
I48
tp3774
(lp3775
(g15
g16
tp3776
as(g29
g480
I27
tp3777
(lp3778
(g172
g173
tp3779
as(g38
g1486
I215
tp3780
(lp3781
(g15
g16
tp3782
as(g29
g162
I10
tp3783
(lp3784
(g33
g34
tp3785
a(g15
g16
tp3786
a(g483
g484
tp3787
a(g483
g484
tp3788
as(g2
g2046
I37
tp3789
(lp3790
(g54
g55
tp3791
as(g2
S'jumper'
p3792
I22
tp3793
(lp3794
(g54
g55
tp3795
as(g29
g497
I1
tp3796
(lp3797
(g15
g16
tp3798
as(g38
g1978
I28
tp3799
(lp3800
(g273
g274
tp3801
as(g2
g368
I105
tp3802
(lp3803
(g2491
g2492
tp3804
as(g29
g774
I64
tp3805
(lp3806
(g6
g7
tp3807
a(g42
g43
tp3808
as(g29
g596
I13
tp3809
(lp3810
(g574
g575
tp3811
as(g2
g1312
I24
tp3812
(lp3813
(g284
g285
tp3814
a(g447
g448
tp3815
a(g447
g448
tp3816
as(g29
g666
I17
tp3817
(lp3818
(g33
g34
tp3819
as(g2
g221
I10
tp3820
(lp3821
(g42
g43
tp3822
as(g29
g692
I45
tp3823
(lp3824
(g15
g16
tp3825
as(g2
g783
I51
tp3826
(lp3827
(g339
g340
tp3828
as(g29
g1076
I17
tp3829
(lp3830
(g73
g74
tp3831
as(g2
g66
I54
tp3832
(lp3833
(g15
g16
tp3834
as(g2
g1097
I3
tp3835
(lp3836
(g73
g74
tp3837
as(g2
g217
I23
tp3838
(lp3839
(g54
g55
tp3840
a(g54
g55
tp3841
as(g29
g1400
I23
tp3842
(lp3843
(g172
g173
tp3844
as(g29
g480
I36
tp3845
(lp3846
(g483
g484
tp3847
as(g29
g568
I44
tp3848
(lp3849
(g1303
g1304
tp3850
as(g2
g1150
I103
tp3851
(lp3852
(g132
g133
tp3853
as(g2
g501
I0
tp3854
(lp3855
(g6
g7
tp3856
as(g2
g760
I20
tp3857
(lp3858
(g371
g372
tp3859
as(g2
g2222
I42
tp3860
(lp3861
(g54
g55
tp3862
as(g38
g541
I29
tp3863
(lp3864
(g103
g104
tp3865
as(g2
g100
I215
tp3866
(lp3867
(g73
g74
tp3868
as(g2
g12
I509
tp3869
(lp3870
(g2491
g2492
tp3871
as(g2
g604
I19
tp3872
(lp3873
(g447
g448
tp3874
as(g2
g501
I114
tp3875
(lp3876
(g15
g16
tp3877
as(g2
g783
I42
tp3878
(lp3879
(g15
g16
tp3880
as(g29
g537
I14
tp3881
(lp3882
(g15
g16
tp3883
as(g2
g12
I142
tp3884
(lp3885
(g54
g55
tp3886
as(g29
g2728
I20
tp3887
(lp3888
(g103
g104
tp3889
a(g6
g7
tp3890
a(g54
g55
tp3891
as(g2
g241
I29
tp3892
(lp3893
(g172
g173
tp3894
as(g29
g560
I35
tp3895
(lp3896
(g396
g397
tp3897
as(g2
g2010
I17
tp3898
(lp3899
(g371
g372
tp3900
as(g2
g88
I95
tp3901
(lp3902
(g6
g7
tp3903
a(g6
g7
tp3904
as(g2
g1176
I38
tp3905
(lp3906
(g339
g340
tp3907
as(g38
g541
I185
tp3908
(lp3909
(g54
g55
tp3910
as(g2
g643
I13
tp3911
(lp3912
(g15
g16
tp3913
as(g2
g1186
I0
tp3914
(lp3915
(g54
g55
tp3916
as(g29
g1190
I24
tp3917
(lp3918
(g15
g16
tp3919
as(g2
g25
I153
tp3920
(lp3921
(g15
g16
tp3922
as(g29
g288
I13
tp3923
(lp3924
(g172
g173
tp3925
as(g29
g661
I88
tp3926
(lp3927
(g54
g55
tp3928
as(g29
g1473
I32
tp3929
(lp3930
(g113
g114
tp3931
as(g38
S'the_story_of_miss_moppet'
p3932
I17
tp3933
(lp3934
(g212
g213
tp3935
a(g6
g7
tp3936
as(g2
g501
I89
tp3937
(lp3938
(g15
g16
tp3939
as(g29
g51
I11
tp3940
(lp3941
(g339
g340
tp3942
as(g2
g3
I69
tp3943
(lp3944
(g6
g7
tp3945
as(g2
g12
I183
tp3946
(lp3947
(g284
g285
tp3948
as(g29
g555
I22
tp3949
(lp3950
(g33
g34
tp3951
a(g15
g16
tp3952
as(g29
g692
I13
tp3953
(lp3954
(g15
g16
tp3955
as(g2
g770
I43
tp3956
(lp3957
(g15
g16
tp3958
as(g29
g458
I50
tp3959
(lp3960
(g447
g448
tp3961
as(g2
g368
I44
tp3962
(lp3963
(g15
g16
tp3964
as(g2
g418
I116
tp3965
(lp3966
(g447
g448
tp3967
as(g2
g3
I62
tp3968
(lp3969
(g6
g7
tp3970
as(g29
g1121
I35
tp3971
(lp3972
(g15
g16
tp3973
as(g2
g2187
I4
tp3974
(lp3975
(g483
g484
tp3976
as(g29
g1468
I44
tp3977
(lp3978
(g54
g55
tp3979
as(g2
g12
I520
tp3980
(lp3981
(g672
g673
tp3982
a(S'chills'
p3983
(lp3984
(g174
g1541
tp3985
atp3986
as(g29
g1041
I4
tp3987
(lp3988
(g237
g238
tp3989
as(g2
g509
I27
tp3990
(lp3991
(g113
g114
tp3992
as(g38
g1080
I82
tp3993
(lp3994
(S'blushing'
p3995
(lp3996
(g342
g58
tp3997
a(g61
g18
tp3998
atp3999
as(g2
g322
I40
tp4000
(lp4001
(g396
g397
tp4002
as(g2
g154
I63
tp4003
(lp4004
(S'restlessness'
p4005
(lp4006
(S'FRUSTRATION'
p4007
g18
tp4008
a(g77
g18
tp4009
atp4010
as(g29
g692
I17
tp4011
(lp4012
(g113
g114
tp4013
as(g29
g350
I21
tp4014
(lp4015
(g172
g173
tp4016
as(g2
g228
I81
tp4017
(lp4018
(g874
g875
tp4019
a(g874
g875
tp4020
as(g29
g51
I193
tp4021
(lp4022
(g2491
g2492
tp4023
as(g2
g770
I64
tp4024
(lp4025
(g6
g7
tp4026
a(g6
g7
tp4027
as(g2
g945
I21
tp4028
(lp4029
(S'gratitude'
p4030
(lp4031
(g3101
g85
tp4032
atp4033
as(g2
g66
I33
tp4034
(lp4035
(g73
g74
tp4036
as(g2
g708
I29
tp4037
(lp4038
(g103
g104
tp4039
a(g339
g340
tp4040
as(g2
g228
I35
tp4041
(lp4042
(g54
g55
tp4043
a(g15
g16
tp4044
as(g2
g12
I389
tp4045
(lp4046
(g103
g104
tp4047
as(g29
g162
I4
tp4048
(lp4049
(g15
g16
tp4050
as(g2
g125
I129
tp4051
(lp4052
(g339
g340
tp4053
as(g29
g169
I49
tp4054
(lp4055
(g172
g173
tp4056
as(g2
g12
I304
tp4057
(lp4058
(g15
g16
tp4059
as(g29
g1041
I47
tp4060
(lp4061
(g15
g16
tp4062
as(g2
g304
I73
tp4063
(lp4064
(g15
g16
tp4065
as(g29
g661
I120
tp4066
(lp4067
(g15
g16
tp4068
as(g2
g564
I131
tp4069
(lp4070
(g6
g7
tp4071
as(g2
g519
I9
tp4072
(lp4073
(g15
g16
tp4074
as(g2
g12
I197
tp4075
(lp4076
(g42
g43
tp4077
as(g2
g221
I56
tp4078
(lp4079
(g54
g55
tp4080
as(g2
g304
I158
tp4081
(lp4082
(g113
g114
tp4083
as(g38
g1080
I107
tp4084
(lp4085
(g447
g448
tp4086
as(g38
g541
I325
tp4087
(lp4088
(g113
g114
tp4089
as(g29
g346
I9
tp4090
(lp4091
(g212
g213
tp4092
as(g2
g117
I135
tp4093
(lp4094
(g212
g213
tp4095
as(g29
g560
I15
tp4096
(lp4097
(g33
g34
tp4098
as(g29
g661
I23
tp4099
(lp4100
(g2023
g2024
tp4101
as(g2
g322
I172
tp4102
(lp4103
(g15
g16
tp4104
as(g2
g418
I161
tp4105
(lp4106
(g447
g448
tp4107
as(g38
g1486
I172
tp4108
(lp4109
(g804
g805
tp4110
as(g2
S'moneybox'
p4111
I4
tp4112
(lp4113
(g120
g121
tp4114
as(g29
g1048
I20
tp4115
(lp4116
(g15
g16
tp4117
as(g29
g205
I30
tp4118
(lp4119
(g73
g74
tp4120
as(g2
g2222
I56
tp4121
(lp4122
(g54
g55
tp4123
as(g29
g1212
I8
tp4124
(lp4125
(g54
g55
tp4126
as(g2
g519
I32
tp4127
(lp4128
(g672
g673
tp4129
as(g29
g1121
I3
tp4130
(lp4131
(g237
g238
tp4132
as(g2
g708
I153
tp4133
(lp4134
(g389
g390
tp4135
as(g29
g480
I33
tp4136
(lp4137
(g172
g173
tp4138
as(g2
g100
I44
tp4139
(lp4140
(g54
g55
tp4141
as(g2
g12
I491
tp4142
(lp4143
(g1539
g1540
tp4144
as(g29
g840
I5
tp4145
(lp4146
(g874
g875
tp4147
a(g15
g16
tp4148
as(g2
g368
I130
tp4149
(lp4150
(g15
g16
tp4151
as(g29
g209
I88
tp4152
(lp4153
(g15
g16
tp4154
as(g29
g51
I28
tp4155
(lp4156
(g54
g55
tp4157
as(g2
g3
I76
tp4158
(lp4159
(g6
g7
tp4160
as(g29
g628
I0
tp4161
(lp4162
(g120
g121
tp4163
as(g29
g1048
I18
tp4164
(lp4165
(g15
g16
tp4166
as(g29
g430
I29
tp4167
(lp4168
(g1303
g1304
tp4169
as(g2
g117
I174
tp4170
(lp4171
(g15
g16
tp4172
as(g2
g635
I74
tp4173
(lp4174
(g54
g55
tp4175
as(g2
g1176
I20
tp4176
(lp4177
(g132
g133
tp4178
as(g29
g1048
I15
tp4179
(lp4180
(g15
g16
tp4181
as(g2
g158
I63
tp4182
(lp4183
(g42
g43
tp4184
as(g29
g169
I54
tp4185
(lp4186
(g804
g805
tp4187
as(g2
g270
I5
tp4188
(lp4189
(g54
g55
tp4190
as(g29
g296
I72
tp4191
(lp4192
(g73
g74
tp4193
as(g29
g47
I4
tp4194
(lp4195
(g447
g448
tp4196
a(g54
g55
tp4197
as(g38
g1486
I40
tp4198
(lp4199
(g6
g7
tp4200
as(g2
g311
I27
tp4201
(lp4202
(g54
g55
tp4203
as(g29
g661
I67
tp4204
(lp4205
(g54
g55
tp4206
as(g2
g1150
I30
tp4207
(lp4208
(g483
g484
tp4209
as(g2
g501
I154
tp4210
(lp4211
(g15
g16
tp4212
a(g15
g16
tp4213
as(g29
g1002
I2
tp4214
(lp4215
(g73
g74
tp4216
as(g29
g350
I16
tp4217
(lp4218
(g172
g173
tp4219
as(g29
g1076
I63
tp4220
(lp4221
(g103
g104
tp4222
as(g38
g1080
I11
tp4223
(lp4224
(g329
g330
tp4225
as(g2
g885
I53
tp4226
(lp4227
(g371
g372
tp4228
as(g29
g96
I15
tp4229
(lp4230
(g15
g16
tp4231
as(g2
g1610
I32
tp4232
(lp4233
(g314
g315
tp4234
a(g371
g372
tp4235
as(g29
g458
I0
tp4236
(lp4237
(g33
g34
tp4238
as(g2
g2293
I30
tp4239
(lp4240
(g284
g285
tp4241
as(g29
g2589
I15
tp4242
(lp4243
(g447
g448
tp4244
as(g29
g1212
I14
tp4245
(lp4246
(g396
g397
tp4247
a(g15
g16
tp4248
as(g2
g304
I12
tp4249
(lp4250
(g15
g16
tp4251
as(g2
g228
I40
tp4252
(lp4253
(g103
g104
tp4254
a(g15
g16
tp4255
as(g2
g878
I59
tp4256
(lp4257
(g15
g16
tp4258
as(g29
g146
I15
tp4259
(lp4260
(g54
g55
tp4261
as(g29
g480
I22
tp4262
(lp4263
(g172
g173
tp4264
as(g29
g162
I13
tp4265
(lp4266
(g212
g213
tp4267
as(g29
g263
I58
tp4268
(lp4269
(g33
g34
tp4270
as(g38
g3404
I6
tp4271
(lp4272
(g329
g330
tp4273
as(g29
g30
I5
tp4274
(lp4275
(g574
g575
tp4276
as(g38
g1978
I17
tp4277
(lp4278
(g73
g74
tp4279
as(g29
g903
I54
tp4280
(lp4281
(g103
g104
tp4282
as(g29
g137
I71
tp4283
(lp4284
(g54
g55
tp4285
a(g15
g16
tp4286
as(g29
g1551
I39
tp4287
(lp4288
(g103
g104
tp4289
as(g29
g666
I30
tp4290
(lp4291
(g15
g16
tp4292
as(g2
g117
I11
tp4293
(lp4294
(S'leaning forward'
p4295
(lp4296
(g342
g18
tp4297
a(S'EAGERNESS'
p4298
g18
tp4299
atp4300
as(g29
g692
I40
tp4301
(lp4302
(g54
g55
tp4303
as(g2
g25
I111
tp4304
(lp4305
(g54
g55
tp4306
as(g2
g733
I32
tp4307
(lp4308
(g103
g104
tp4309
as(g2
g228
I79
tp4310
(lp4311
(g314
g315
tp4312
as(g2
g88
I99
tp4313
(lp4314
(g6
g7
tp4315
as(g2
g3433
I19
tp4316
(lp4317
(g54
g55
tp4318
as(g2
g368
I162
tp4319
(lp4320
(g15
g16
tp4321
as(g2
g509
I91
tp4322
(lp4323
(g54
g55
tp4324
as(g29
g1076
I20
tp4325
(lp4326
(g33
g34
tp4327
as(g38
g2201
I75
tp4328
(lp4329
(g997
g998
tp4330
as(g29
g96
I20
tp4331
(lp4332
(g113
g114
tp4333
as(g29
g854
I15
tp4334
(lp4335
(g172
g173
tp4336
as(g2
g12
I156
tp4337
(lp4338
(g184
g185
tp4339
as(g2
g270
I130
tp4340
(lp4341
(g1633
g1634
tp4342
as(g29
g596
I31
tp4343
(lp4344
(g54
g55
tp4345
as(g29
g1497
I5
tp4346
(lp4347
(g132
g133
tp4348
a(g54
g55
tp4349
as(g2
g228
I17
tp4350
(lp4351
(g339
g340
tp4352
as(g2
g158
I13
tp4353
(lp4354
(g54
g55
tp4355
as(g2
g418
I168
tp4356
(lp4357
(g447
g448
tp4358
as(g29
g169
I71
tp4359
(lp4360
(g54
g55
tp4361
as(g2
g2498
I111
tp4362
(lp4363
(g15
g16
tp4364
as(g2
g117
I61
tp4365
(lp4366
(g6
g7
tp4367
as(g2
g740
I23
tp4368
(lp4369
(g6
g7
tp4370
a(g6
g7
tp4371
as(g2
g501
I5
tp4372
(lp4373
(g15
g16
tp4374
a(g15
g16
tp4375
as(g29
g1041
I33
tp4376
(lp4377
(g15
g16
tp4378
as(g2
g3158
I82
tp4379
(lp4380
(g15
g16
tp4381
as(g2
g100
I212
tp4382
(lp4383
(g73
g74
tp4384
as(g29
g1473
I21
tp4385
(lp4386
(g54
g55
tp4387
as(g29
g51
I37
tp4388
(lp4389
(g396
g397
tp4390
a(g15
g16
tp4391
as(g38
g1486
I72
tp4392
(lp4393
(g42
g43
tp4394
as(g2
g941
I36
tp4395
(lp4396
(g73
g74
tp4397
as(g29
g530
I32
tp4398
(lp4399
(g6
g7
tp4400
a(g6
g7
tp4401
as(g2
g322
I190
tp4402
(lp4403
(g273
g274
tp4404
as(g2
g676
I52
tp4405
(lp4406
(g299
g300
tp4407
as(g2
g444
I37
tp4408
(lp4409
(g273
g274
tp4410
as(g2
g12
I86
tp4411
(lp4412
(S'deep breaths'
p4413
(lp4414
(g17
g58
tp4415
a(g77
g18
tp4416
atp4417
as(g29
g582
I35
tp4418
(lp4419
(g212
g213
tp4420
as(g2
g125
I101
tp4421
(lp4422
(g15
g16
tp4423
as(g29
g296
I13
tp4424
(lp4425
(g396
g397
tp4426
as(g2
g418
I102
tp4427
(lp4428
(g447
g448
tp4429
as(g29
g1212
I26
tp4430
(lp4431
(g273
g274
tp4432
as(g29
g383
I6
tp4433
(lp4434
(g329
g330
tp4435
as(g29
g263
I26
tp4436
(lp4437
(g54
g55
tp4438
as(g2
g100
I58
tp4439
(lp4440
(g73
g74
tp4441
as(g2
g270
I14
tp4442
(lp4443
(g447
g448
tp4444
as(g29
g903
I86
tp4445
(lp4446
(g6
g7
tp4447
as(g29
g209
I42
tp4448
(lp4449
(g15
g16
tp4450
as(g29
g51
I14
tp4451
(lp4452
(g284
g285
tp4453
as(g2
g154
I13
tp4454
(lp4455
(g2361
g2362
tp4456
a(g42
g43
tp4457
as(g29
g624
I19
tp4458
(lp4459
(g6
g7
tp4460
as(g29
g555
I29
tp4461
(lp4462
(g997
g998
tp4463
as(g29
g692
I8
tp4464
(lp4465
(g15
g16
tp4466
as(g29
g600
I30
tp4467
(lp4468
(g389
g390
tp4469
as(g29
g774
I57
tp4470
(lp4471
(g6
g7
tp4472
a(g6
g7
tp4473
as(g29
g1076
I52
tp4474
(lp4475
(g15
g16
tp4476
as(g2
g444
I62
tp4477
(lp4478
(g314
g315
tp4479
as(g2
g490
I61
tp4480
(lp4481
(g15
g16
tp4482
as(g2
g451
I95
tp4483
(lp4484
(g2101
g2102
tp4485
as(g38
g92
I94
tp4486
(lp4487
(g113
g114
tp4488
as(g2
g117
I111
tp4489
(lp4490
(g339
g340
tp4491
a(g339
g340
tp4492
as(g29
g657
I43
tp4493
(lp4494
(g113
g114
tp4495
as(g29
g251
I99
tp4496
(lp4497
(g113
g114
tp4498
as(g2
g158
I45
tp4499
(lp4500
(g42
g43
tp4501
as(g29
g169
I39
tp4502
(lp4503
(g672
g673
tp4504
as(g2
g708
I125
tp4505
(lp4506
(g389
g390
tp4507
as(g29
g129
I111
tp4508
(lp4509
(g54
g55
tp4510
as(g2
g304
I91
tp4511
(lp4512
(g15
g16
tp4513
as(g2
g509
I6
tp4514
(lp4515
(g33
g34
tp4516
as(g2
g750
I33
tp4517
(lp4518
(g73
g74
tp4519
as(g29
g530
I46
tp4520
(lp4521
(g15
g16
tp4522
as(g29
g1212
I33
tp4523
(lp4524
(g15
g16
tp4525
as(g2
g519
I31
tp4526
(lp4527
(g73
g74
tp4528
as(g2
g426
I33
tp4529
(lp4530
(g54
g55
tp4531
as(g2
g88
I106
tp4532
(lp4533
(g6
g7
tp4534
as(g2
g2081
I35
tp4535
(lp4536
(g73
g74
tp4537
as(g29
g696
I67
tp4538
(lp4539
(g15
g16
tp4540
as(g2
g490
I38
tp4541
(lp4542
(g284
g285
tp4543
as(g29
g854
I4
tp4544
(lp4545
(g103
g104
tp4546
as(g29
g555
I36
tp4547
(lp4548
(g15
g16
tp4549
as(g29
g560
I8
tp4550
(lp4551
(g33
g34
tp4552
as(g29
g51
I138
tp4553
(lp4554
(g396
g397
tp4555
as(g38
g92
I154
tp4556
(lp4557
(g1633
g1634
tp4558
as(g29
g1658
I2
tp4559
(lp4560
(g33
g34
tp4561
as(g29
g383
I52
tp4562
(lp4563
(g574
g575
tp4564
as(g29
g1121
I71
tp4565
(lp4566
(g113
g114
tp4567
as(g2
g12
I54
tp4568
(lp4569
(g15
g16
tp4570
as(g29
g1048
I6
tp4571
(lp4572
(g54
g55
tp4573
as(g2
g117
I36
tp4574
(lp4575
(g284
g285
tp4576
as(g29
g1041
I40
tp4577
(lp4578
(g447
g448
tp4579
as(g2
g2222
I46
tp4580
(lp4581
(g54
g55
tp4582
as(g29
g169
I82
tp4583
(lp4584
(g54
g55
tp4585
as(g2
g941
I127
tp4586
(lp4587
(g33
g34
tp4588
as(g29
g1551
I41
tp4589
(lp4590
(g103
g104
tp4591
as(g2
g783
I46
tp4592
(lp4593
(g273
g274
tp4594
as(g2
g158
I67
tp4595
(lp4596
(g54
g55
tp4597
as(g29
g624
I51
tp4598
(lp4599
(S'collapsing'
p4600
(lp4601
(g3101
g9
tp4602
a(S'AMAZEMENT'
p4603
g9
tp4604
atp4605
a(g212
g213
tp4606
as(g2
g125
I46
tp4607
(lp4608
(g120
g121
tp4609
as(g2
g501
I161
tp4610
(lp4611
(g54
g55
tp4612
as(g2
g217
I32
tp4613
(lp4614
(g73
g74
tp4615
a(g172
g173
tp4616
as(g2
g1176
I34
tp4617
(lp4618
(g15
g16
tp4619
as(g29
g1121
I92
tp4620
(lp4621
(g15
g16
tp4622
as(g29
g497
I134
tp4623
(lp4624
(g997
g998
tp4625
as(g29
g903
I27
tp4626
(lp4627
(g33
g34
tp4628
as(g38
g2201
I54
tp4629
(lp4630
(g54
g55
tp4631
as(g2
g418
I105
tp4632
(lp4633
(g447
g448
tp4634
as(g2
g519
I45
tp4635
(lp4636
(g42
g43
tp4637
as(g29
g1551
I0
tp4638
(lp4639
(g948
g949
tp4640
as(g29
g2277
I46
tp4641
(lp4642
(g113
g114
tp4643
as(g2
g88
I56
tp4644
(lp4645
(g103
g104
tp4646
as(g29
g1268
I31
tp4647
(lp4648
(g73
g74
tp4649
as(g29
g47
I18
tp4650
(lp4651
(g54
g55
tp4652
as(g29
g51
I23
tp4653
(lp4654
(g15
g16
tp4655
as(g29
g422
I53
tp4656
(lp4657
(g113
g114
tp4658
as(g2
g426
I65
tp4659
(lp4660
(g132
g133
tp4661
as(g29
g288
I26
tp4662
(lp4663
(g2110
g2111
tp4664
as(g2
g2293
I66
tp4665
(lp4666
(g15
g16
tp4667
as(g29
g600
I5
tp4668
(lp4669
(g172
g173
tp4670
as(g29
g1395
I15
tp4671
(lp4672
(g113
g114
tp4673
as(g2
g635
I79
tp4674
(lp4675
(g15
g16
tp4676
as(g2
g88
I74
tp4677
(lp4678
(g6
g7
tp4679
as(g2
g1754
I23
tp4680
(lp4681
(g54
g55
tp4682
as(g29
g596
I58
tp4683
(lp4684
(g15
g16
tp4685
a(g113
g114
tp4686
as(g29
g480
I8
tp4687
(lp4688
(g172
g173
tp4689
as(g2
g604
I105
tp4690
(lp4691
(g103
g104
tp4692
as(g29
g1041
I8
tp4693
(lp4694
(g15
g16
tp4695
as(g2
g304
I108
tp4696
(lp4697
(g1876
g1877
tp4698
a(g15
g16
tp4699
as(g2
g322
I44
tp4700
(lp4701
(g15
g16
tp4702
as(g2
g418
I38
tp4703
(lp4704
(g314
g315
tp4705
as(g2
g3
I80
tp4706
(lp4707
(g73
g74
tp4708
as(g38
g326
I19
tp4709
(lp4710
(g120
g121
tp4711
as(g38
g541
I304
tp4712
(lp4713
(g299
g300
tp4714
as(g2
g604
I55
tp4715
(lp4716
(g103
g104
tp4717
as(g2
g88
I113
tp4718
(lp4719
(g6
g7
tp4720
as(g2
g368
I204
tp4721
(lp4722
(g54
g55
tp4723
as(g2
g770
I68
tp4724
(lp4725
(g15
g16
tp4726
as(g2
g418
I148
tp4727
(lp4728
(g447
g448
tp4729
as(g2
g66
I146
tp4730
(lp4731
(g113
g114
tp4732
as(g29
g169
I139
tp4733
(lp4734
(g54
g55
tp4735
as(g2
g125
I78
tp4736
(lp4737
(g15
g16
tp4738
as(g29
g2589
I16
tp4739
(lp4740
(g997
g998
tp4741
as(g2
g635
I20
tp4742
(lp4743
(g483
g484
tp4744
as(g29
g480
I17
tp4745
(lp4746
(g172
g173
tp4747
as(g2
g4111
I33
tp4748
(lp4749
(g6
g7
tp4750
as(g2
g12
I63
tp4751
(lp4752
(g284
g285
tp4753
as(g2
g100
I17
tp4754
(lp4755
(g103
g104
tp4756
as(g29
g582
I8
tp4757
(lp4758
(g1959
g1960
tp4759
as(g2
g708
I107
tp4760
(lp4761
(g42
g43
tp4762
as(g2
g501
I51
tp4763
(lp4764
(g113
g114
tp4765
as(g2
g158
I151
tp4766
(lp4767
(g54
g55
tp4768
as(g29
g1041
I51
tp4769
(lp4770
(g15
g16
tp4771
as(g2
g2222
I23
tp4772
(lp4773
(g132
g133
tp4774
as(g2
g311
I63
tp4775
(lp4776
(g54
g55
tp4777
as(g2
g941
I96
tp4778
(lp4779
(g54
g55
tp4780
as(g29
g2277
I14
tp4781
(lp4782
(g42
g43
tp4783
as(g2
g304
I154
tp4784
(lp4785
(g113
g114
tp4786
as(g2
g88
I24
tp4787
(lp4788
(g6
g7
tp4789
as(g2
g2222
I3
tp4790
(lp4791
(g33
g34
tp4792
as(g2
g676
I36
tp4793
(lp4794
(g73
g74
tp4795
as(g2
g66
I76
tp4796
(lp4797
(g42
g43
tp4798
as(g2
g364
I20
tp4799
(lp4800
(g15
g16
tp4801
as(g2
g125
I33
tp4802
(lp4803
(g371
g372
tp4804
as(g29
g2968
I18
tp4805
(lp4806
(g15
g16
tp4807
as(g2
g740
I68
tp4808
(lp4809
(g54
g55
tp4810
as(g2
g12
I400
tp4811
(lp4812
(g1375
g1376
tp4813
a(g15
g16
tp4814
as(g29
g657
I84
tp4815
(lp4816
(g113
g114
tp4817
as(g2
g878
I23
tp4818
(lp4819
(g73
g74
tp4820
as(g38
g1928
I28
tp4821
(lp4822
(g103
g104
tp4823
as(g38
g541
I180
tp4824
(lp4825
(g574
g575
tp4826
as(g2
g2187
I46
tp4827
(lp4828
(g42
g43
tp4829
as(g29
g596
I44
tp4830
(lp4831
(g15
g16
tp4832
as(g29
g251
I76
tp4833
(lp4834
(g15
g16
tp4835
as(g29
g1658
I66
tp4836
(lp4837
(g1089
g1090
tp4838
as(g29
g1121
I7
tp4839
(lp4840
(g73
g74
tp4841
as(g2
g259
I6
tp4842
(lp4843
(g15
g16
tp4844
as(g38
g1978
I35
tp4845
(lp4846
(g15
g16
tp4847
as(g29
S'second_story'
p4848
I26
tp4849
(lp4850
(g6
g7
tp4851
a(g6
g7
tp4852
as(g2
g783
I92
tp4853
(lp4854
(g54
g55
tp4855
as(g2
g676
I11
tp4856
(lp4857
(g103
g104
tp4858
as(g2
g941
I63
tp4859
(lp4860
(g73
g74
tp4861
as(g29
g600
I12
tp4862
(lp4863
(g73
g74
tp4864
a(g33
g34
tp4865
a(g15
g16
tp4866
as(g29
g346
I16
tp4867
(lp4868
(g42
g43
tp4869
as(g29
g350
I11
tp4870
(lp4871
(g396
g397
tp4872
as(g2
g1176
I16
tp4873
(lp4874
(g329
g330
tp4875
as(g2
g12
I442
tp4876
(lp4877
(g103
g104
tp4878
as(g38
g1486
I159
tp4879
(lp4880
(g4030
g4031
tp4881
as(g2
g490
I15
tp4882
(lp4883
(g339
g340
tp4884
as(g29
g169
I107
tp4885
(lp4886
(g54
g55
tp4887
as(g2
g1186
I10
tp4888
(lp4889
(g73
g74
tp4890
a(g15
g16
tp4891
as(g2
g228
I126
tp4892
(lp4893
(g2038
g2039
tp4894
as(g2
g304
I23
tp4895
(lp4896
(g54
g55
tp4897
as(g2
g750
I29
tp4898
(lp4899
(g3995
g3996
tp4900
as(g29
g51
I179
tp4901
(lp4902
(g15
g16
tp4903
as(g29
g1212
I29
tp4904
(lp4905
(g396
g397
tp4906
as(g2
g270
I1
tp4907
(lp4908
(g54
g55
tp4909
as(g29
g1041
I19
tp4910
(lp4911
(g15
g16
tp4912
as(g2
g410
I38
tp4913
(lp4914
(g389
g390
tp4915
as(g2
g154
I8
tp4916
(lp4917
(g54
g55
tp4918
as(g29
S'fundevogel'
p4919
I0
tp4920
(lp4921
(g396
g397
tp4922
as(g2
g100
I226
tp4923
(lp4924
(g73
g74
tp4925
as(g2
g66
I82
tp4926
(lp4927
(g42
g43
tp4928
as(g29
g346
I63
tp4929
(lp4930
(g15
g16
tp4931
as(g2
g117
I189
tp4932
(lp4933
(g54
g55
tp4934
as(g29
g350
I20
tp4935
(lp4936
(g172
g173
tp4937
as(g29
g774
I36
tp4938
(lp4939
(g6
g7
tp4940
as(g2
g418
I159
tp4941
(lp4942
(g113
g114
tp4943
as(g29
g129
I60
tp4944
(lp4945
(g15
g16
tp4946
as(g2
g292
I55
tp4947
(lp4948
(g389
g390
tp4949
as(g29
g1121
I88
tp4950
(lp4951
(g103
g104
tp4952
as(g2
g150
I10
tp4953
(lp4954
(g339
g340
tp4955
a(g120
g121
tp4956
as(g29
g480
I26
tp4957
(lp4958
(g483
g484
tp4959
as(g29
g383
I42
tp4960
(lp4961
(g574
g575
tp4962
as(g38
g1486
I200
tp4963
(lp4964
(g6
g7
tp4965
as(g2
g740
I58
tp4966
(lp4967
(g15
g16
tp4968
as(g2
g304
I94
tp4969
(lp4970
(g113
g114
tp4971
as(g29
g51
I106
tp4972
(lp4973
(g15
g16
tp4974
a(g15
g16
tp4975
as(g38
g1486
I27
tp4976
(lp4977
(g73
g74
tp4978
as(g38
g2943
I53
tp4979
(lp4980
(g103
g104
tp4981
as(g2
g66
I136
tp4982
(lp4983
(g273
g274
tp4984
as(g2
g70
I56
tp4985
(lp4986
(g284
g285
tp4987
as(g29
g1268
I54
tp4988
(lp4989
(g284
g285
tp4990
as(g29
g336
I20
tp4991
(lp4992
(g15
g16
tp4993
as(g29
g548
I28
tp4994
(lp4995
(g54
g55
tp4996
as(g2
g708
I23
tp4997
(lp4998
(g103
g104
tp4999
as(g2
g2187
I27
tp5000
(lp5001
(g42
g43
tp5002
as(g2
g418
I85
tp5003
(lp5004
(g447
g448
tp5005
as(g2
g154
I140
tp5006
(lp5007
(g804
g805
tp5008
as(g29
g383
I51
tp5009
(lp5010
(g15
g16
tp5011
as(g38
g1486
I191
tp5012
(lp5013
(g329
g330
tp5014
as(g29
g169
I75
tp5015
(lp5016
(g42
g43
tp5017
as(g29
g582
I6
tp5018
(lp5019
(g813
g814
tp5020
as(g29
g129
I75
tp5021
(lp5022
(g15
g16
tp5023
as(g2
g154
I94
tp5024
(lp5025
(g2110
g2111
tp5026
as(g29
g840
I16
tp5027
(lp5028
(g1463
g1464
tp5029
as(g2
g304
I132
tp5030
(lp5031
(g15
g16
tp5032
as(g2
g501
I115
tp5033
(lp5034
(g15
g16
tp5035
as(g29
g209
I79
tp5036
(lp5037
(g15
g16
tp5038
as(g29
g422
I39
tp5039
(lp5040
(g172
g173
tp5041
as(g2
g941
I32
tp5042
(lp5043
(g15
g16
tp5044
as(g2
g2046
I35
tp5045
(lp5046
(g15
g16
tp5047
as(g2
g88
I88
tp5048
(lp5049
(g103
g104
tp5050
as(g2
g519
I41
tp5051
(lp5052
(g42
g43
tp5053
as(g29
g1121
I91
tp5054
(lp5055
(g396
g397
tp5056
as(g2
g221
I27
tp5057
(lp5058
(g42
g43
tp5059
as(g2
g892
I19
tp5060
(lp5061
(g6
g7
tp5062
as(g29
g336
I111
tp5063
(lp5064
(g113
g114
tp5065
as(g29
g129
I92
tp5066
(lp5067
(g103
g104
tp5068
as(g29
g628
I18
tp5069
(lp5070
(g15
g16
tp5071
as(g29
g657
I20
tp5072
(lp5073
(g284
g285
tp5074
a(g113
g114
tp5075
as(g29
g661
I91
tp5076
(lp5077
(g15
g16
tp5078
as(g2
g154
I71
tp5079
(lp5080
(g15
g16
tp5081
as(g2
g509
I11
tp5082
(lp5083
(g813
g814
tp5084
a(g1876
g1877
tp5085
as(g2
g1150
I57
tp5086
(lp5087
(g113
g114
tp5088
as(g2
g25
I69
tp5089
(lp5090
(S'headache'
p5091
(lp5092
(g1446
g58
tp5093
a(g1967
g1541
tp5094
a(g192
g1541
tp5095
atp5096
a(S'headaches'
p5097
(lp5098
(g485
g9
tp5099
a(S'CONFLICTED'
p5100
g1541
tp5101
a(g198
g1541
tp5102
a(S'DETERMINATION'
p5103
g9
tp5104
a(g176
g85
tp5105
atp5106
as(g2
g501
I90
tp5107
(lp5108
(g672
g673
tp5109
as(g2
g368
I136
tp5110
(lp5111
(g389
g390
tp5112
a(g273
g274
tp5113
as(g2
g3
I66
tp5114
(lp5115
(g6
g7
tp5116
as(g29
g555
I25
tp5117
(lp5118
(g6
g7
tp5119
as(g29
g692
I12
tp5120
(lp5121
(g184
g185
tp5122
as(g2
g25
I51
tp5123
(lp5124
(g1647
g1648
tp5125
as(g29
g350
I29
tp5126
(lp5127
(g15
g16
tp5128
a(g15
g16
tp5129
as(g29
g1121
I98
tp5130
(lp5131
(S'impatience'
p5132
(lp5133
(g35
g18
tp5134
a(g275
g85
tp5135
a(g194
g85
tp5136
a(g107
g85
tp5137
atp5138
as(g29
g1076
I48
tp5139
(lp5140
(g284
g285
tp5141
a(g103
g104
tp5142
as(g38
g1486
I141
tp5143
(lp5144
(g339
g340
tp5145
as(g29
g296
I75
tp5146
(lp5147
(g1089
g1090
tp5148
as(g2
g451
I91
tp5149
(lp5150
(g33
g34
tp5151
as(g2
g125
I88
tp5152
(lp5153
(g6
g7
tp5154
a(g6
g7
tp5155
as(g2
S'no_doubt'
p5156
I47
tp5157
(lp5158
(g813
g814
tp5159
as(g29
g628
I5
tp5160
(lp5161
(g103
g104
tp5162
as(g2
g418
I117
tp5163
(lp5164
(g73
g74
tp5165
as(g2
g3
I63
tp5166
(lp5167
(g6
g7
tp5168
as(g38
g1486
I223
tp5169
(lp5170
(S'nodding slowly'
p5171
(lp5172
(S'CURIOSITY'
p5173
g18
tp5174
atp5175
as(g2
g259
I44
tp5176
(lp5177
(g103
g104
tp5178
a(g15
g16
tp5179
as(g29
g263
I15
tp5180
(lp5181
(g6
g7
tp5182
as(g2
g364
I109
tp5183
(lp5184
(g15
g16
tp5185
as(g2
g733
I99
tp5186
(lp5187
(g15
g16
tp5188
as(g38
g39
I25
tp5189
(lp5190
(g339
g340
tp5191
as(g29
g537
I95
tp5192
(lp5193
(g447
g448
tp5194
as(g38
g3417
I29
tp5195
(lp5196
(g997
g998
tp5197
as(g38
g2943
I62
tp5198
(lp5199
(g212
g213
tp5200
as(g2
g1312
I16
tp5201
(lp5202
(g447
g448
tp5203
as(g2
g604
I48
tp5204
(lp5205
(g15
g16
tp5206
as(g2
g635
I107
tp5207
(lp5208
(g54
g55
tp5209
as(g29
g774
I42
tp5210
(lp5211
(g6
g7
tp5212
as(g29
g1076
I9
tp5213
(lp5214
(g103
g104
tp5215
as(g29
g51
I24
tp5216
(lp5217
(g15
g16
tp5218
as(g2
g354
I47
tp5219
(lp5220
(g73
g74
tp5221
as(g2
g100
I162
tp5222
(lp5223
(g73
g74
tp5224
as(g29
g110
I15
tp5225
(lp5226
(g15
g16
tp5227
as(g2
g364
I10
tp5228
(lp5229
(g15
g16
tp5230
as(g29
g2968
I4
tp5231
(lp5232
(g141
g142
tp5233
as(g2
g2293
I16
tp5234
(lp5235
(g15
g16
tp5236
as(g29
g628
I60
tp5237
(lp5238
(g6
g7
tp5239
as(g29
g146
I1
tp5240
(lp5241
(g6
g7
tp5242
as(g2
g150
I4
tp5243
(lp5244
(g73
g74
tp5245
a(g339
g340
tp5246
a(g54
g55
tp5247
as(g29
g263
I48
tp5248
(lp5249
(g54
g55
tp5250
as(g2
g100
I20
tp5251
(lp5252
(g132
g133
tp5253
as(g2
g117
I32
tp5254
(lp5255
(g113
g114
tp5256
as(g29
g440
I44
tp5257
(lp5258
(g15
g16
tp5259
as(g29
g537
I72
tp5260
(lp5261
(g15
g16
tp5262
as(g2
g66
I154
tp5263
(lp5264
(g73
g74
tp5265
a(g273
g274
tp5266
as(g29
g840
I27
tp5267
(lp5268
(g54
g55
tp5269
as(g2
g509
I86
tp5270
(lp5271
(g54
g55
tp5272
as(g29
g209
I70
tp5273
(lp5274
(g15
g16
tp5275
as(g2
g2081
I54
tp5276
(lp5277
(g33
g34
tp5278
as(g29
g1076
I30
tp5279
(lp5280
(g284
g285
tp5281
as(g29
g779
I41
tp5282
(lp5283
(g113
g114
tp5284
as(g38
g541
I326
tp5285
(lp5286
(g82
g83
tp5287
as(g29
g110
I48
tp5288
(lp5289
(g113
g114
tp5290
as(g2
g364
I17
tp5291
(lp5292
(g15
g16
tp5293
as(g2
g12
I150
tp5294
(lp5295
(g54
g55
tp5296
as(g38
g2165
I2
tp5297
(lp5298
(g15
g16
tp5299
as(g29
g628
I87
tp5300
(lp5301
(g120
g121
tp5302
as(g29
g137
I48
tp5303
(lp5304
(g15
g16
tp5305
as(g2
g158
I7
tp5306
(lp5307
(g3055
g3056
tp5308
as(g2
g700
I39
tp5309
(lp5310
(g15
g16
tp5311
as(g2
g100
I125
tp5312
(lp5313
(g73
g74
tp5314
as(g2
g708
I87
tp5315
(lp5316
(g284
g285
tp5317
as(g2
g259
I11
tp5318
(lp5319
(g15
g16
tp5320
as(g2
g100
I47
tp5321
(lp5322
(g874
g875
tp5323
a(g113
g114
tp5324
as(g2
g368
I129
tp5325
(lp5326
(g1444
g1445
tp5327
as(g38
g1486
I66
tp5328
(lp5329
(g2038
g2039
tp5330
as(g2
g2498
I114
tp5331
(lp5332
(g42
g43
tp5333
as(g38
g2943
I30
tp5334
(lp5335
(g329
g330
tp5336
as(g38
g868
I15
tp5337
(lp5338
(g371
g372
tp5339
as(g2
g12
I444
tp5340
(lp5341
(g15
g16
tp5342
as(g2
g88
I78
tp5343
(lp5344
(g54
g55
tp5345
as(g38
g1486
I148
tp5346
(lp5347
(g212
g213
tp5348
as(g29
g205
I6
tp5349
(lp5350
(g172
g173
tp5351
as(g2
g304
I26
tp5352
(lp5353
(g113
g114
tp5354
as(g2
g564
I80
tp5355
(lp5356
(g113
g114
tp5357
as(g29
g480
I12
tp5358
(lp5359
(g172
g173
tp5360
as(g2
g100
I79
tp5361
(lp5362
(g132
g133
tp5363
as(g38
g1486
I230
tp5364
(lp5365
(g1489
g1490
tp5366
as(g29
g1551
I31
tp5367
(lp5368
(g813
g814
tp5369
as(g29
g1290
I7
tp5370
(lp5371
(g212
g213
tp5372
a(g54
g55
tp5373
as(g2
g100
I52
tp5374
(lp5375
(g73
g74
tp5376
as(g2
g418
I82
tp5377
(lp5378
(g54
g55
tp5379
as(g29
g1041
I12
tp5380
(lp5381
(g15
g16
tp5382
as(g29
g296
I73
tp5383
(lp5384
(g103
g104
tp5385
as(g2
g783
I112
tp5386
(lp5387
(g73
g74
tp5388
as(g2
g410
I35
tp5389
(lp5390
(g874
g875
tp5391
as(g29
g596
I98
tp5392
(lp5393
(g574
g575
tp5394
as(g2
g2498
I107
tp5395
(lp5396
(g15
g16
tp5397
as(g2
g70
I38
tp5398
(lp5399
(g103
g104
tp5400
a(g103
g104
tp5401
as(g38
g868
I32
tp5402
(lp5403
(g103
g104
tp5404
as(g38
g39
I64
tp5405
(lp5406
(g389
g390
tp5407
as(g2
g1064
I43
tp5408
(lp5409
(g15
g16
tp5410
as(g2
g418
I144
tp5411
(lp5412
(g132
g133
tp5413
a(g15
g16
tp5414
as(g29
g1121
I134
tp5415
(lp5416
(g237
g238
tp5417
as(g29
g628
I55
tp5418
(lp5419
(g483
g484
tp5420
a(g483
g484
tp5421
as(g2
g88
I135
tp5422
(lp5423
(g6
g7
tp5424
as(g29
g263
I54
tp5425
(lp5426
(g483
g484
tp5427
as(g2
g3
I49
tp5428
(lp5429
(g6
g7
tp5430
as(g2
g158
I39
tp5431
(lp5432
(g113
g114
tp5433
as(g29
g1121
I48
tp5434
(lp5435
(g15
g16
tp5436
as(g2
g292
I126
tp5437
(lp5438
(g2110
g2111
tp5439
as(g2
g1312
I30
tp5440
(lp5441
(g6
g7
tp5442
as(g29
g666
I31
tp5443
(lp5444
(g15
g16
tp5445
as(g29
g346
I83
tp5446
(lp5447
(g15
g16
tp5448
as(g29
g692
I39
tp5449
(lp5450
(g33
g34
tp5451
a(g15
g16
tp5452
as(g2
g604
I34
tp5453
(lp5454
(g15
g16
tp5455
as(g2
g88
I28
tp5456
(lp5457
(g804
g805
tp5458
as(g2
g509
I90
tp5459
(lp5460
(g15
g16
tp5461
as(g2
g676
I32
tp5462
(lp5463
(g284
g285
tp5464
as(g29
g2837
I77
tp5465
(lp5466
(g103
g104
tp5467
as(g29
g146
I23
tp5468
(lp5469
(g15
g16
tp5470
as(g29
g1744
I42
tp5471
(lp5472
(g113
g114
tp5473
as(g29
g639
I1
tp5474
(lp5475
(g103
g104
tp5476
as(g2
g158
I12
tp5477
(lp5478
(g132
g133
tp5479
as(g2
g444
I11
tp5480
(lp5481
(g132
g133
tp5482
as(g2
g12
I32
tp5483
(lp5484
(g42
g43
tp5485
as(g2
g892
I5
tp5486
(lp5487
(g284
g285
tp5488
as(g2
g364
I74
tp5489
(lp5490
(g1539
g1540
tp5491
as(g29
g296
I27
tp5492
(lp5493
(g15
g16
tp5494
as(g2
g878
I69
tp5495
(lp5496
(g874
g875
tp5497
as(g2
g1243
I35
tp5498
(lp5499
(g54
g55
tp5500
as(g2
g88
I11
tp5501
(lp5502
(g6
g7
tp5503
as(g29
g51
I36
tp5504
(lp5505
(g54
g55
tp5506
as(g2
g311
I52
tp5507
(lp5508
(g15
g16
tp5509
as(g29
g110
I34
tp5510
(lp5511
(g15
g16
tp5512
as(g29
g624
I45
tp5513
(lp5514
(g54
g55
tp5515
as(g38
g1101
I43
tp5516
(lp5517
(g339
g340
tp5518
as(g29
g628
I65
tp5519
(lp5520
(g483
g484
tp5521
a(g483
g484
tp5522
as(g29
g600
I48
tp5523
(lp5524
(g15
g16
tp5525
as(g29
g350
I15
tp5526
(lp5527
(g172
g173
tp5528
as(g2
g1176
I28
tp5529
(lp5530
(g120
g121
tp5531
as(g29
g209
I47
tp5532
(lp5533
(g15
g16
tp5534
as(g29
g1121
I102
tp5535
(lp5536
(g15
g16
tp5537
as(g2
g364
I81
tp5538
(lp5539
(g970
g971
tp5540
as(g2
g604
I169
tp5541
(lp5542
(g6
g7
tp5543
as(g2
g750
I25
tp5544
(lp5545
(g33
g34
tp5546
as(g2
g490
I109
tp5547
(lp5548
(g1539
g1540
tp5549
as(g29
g263
I25
tp5550
(lp5551
(g132
g133
tp5552
as(g2
g12
I280
tp5553
(lp5554
(g284
g285
tp5555
as(g2
g410
I42
tp5556
(lp5557
(g396
g397
tp5558
a(g15
g16
tp5559
as(g2
g322
I76
tp5560
(lp5561
(g212
g213
tp5562
as(g2
g760
I80
tp5563
(lp5564
(g6
g7
tp5565
as(g2
g1362
I18
tp5566
(lp5567
(g54
g55
tp5568
as(g2
g426
I55
tp5569
(lp5570
(g42
g43
tp5571
as(g2
g12
I426
tp5572
(lp5573
(g6
g7
tp5574
as(g2
g66
I16
tp5575
(lp5576
(g73
g74
tp5577
as(g2
g700
I2
tp5578
(lp5579
(g42
g43
tp5580
as(g2
g708
I44
tp5581
(lp5582
(g15
g16
tp5583
as(g2
g2293
I6
tp5584
(lp5585
(g371
g372
tp5586
as(g29
g628
I14
tp5587
(lp5588
(g73
g74
tp5589
a(g15
g16
tp5590
as(g2
g3
I56
tp5591
(lp5592
(g6
g7
tp5593
a(g6
g7
tp5594
as(g29
g383
I46
tp5595
(lp5596
(g15
g16
tp5597
as(g2
g228
I96
tp5598
(lp5599
(g42
g43
tp5600
as(g29
g129
I110
tp5601
(lp5602
(g1876
g1877
tp5603
a(g339
g340
tp5604
a(g15
g16
tp5605
as(g29
g209
I2
tp5606
(lp5607
(g3055
g3056
tp5608
a(g3055
g3056
tp5609
as(g2
g322
I34
tp5610
(lp5611
(g15
g16
tp5612
as(g2
g760
I75
tp5613
(lp5614
(g15
g16
tp5615
as(g29
g666
I22
tp5616
(lp5617
(S'gasping'
p5618
(lp5619
(g3101
g18
tp5620
atp5621
as(g29
g346
I76
tp5622
(lp5623
(g15
g16
tp5624
as(g38
g1486
I96
tp5625
(lp5626
(S'blinking'
p5627
(lp5628
(g17
g58
tp5629
a(g5173
g18
tp5630
atp5631
as(g29
g350
I33
tp5632
(lp5633
(g172
g173
tp5634
as(g2
g88
I107
tp5635
(lp5636
(g6
g7
tp5637
as(g2
g509
I83
tp5638
(lp5639
(g15
g16
tp5640
as(g2
g490
I37
tp5641
(lp5642
(g284
g285
tp5643
a(g284
g285
tp5644
as(g29
g336
I16
tp5645
(lp5646
(g15
g16
tp5647
as(g2
g364
I7
tp5648
(lp5649
(g132
g133
tp5650
as(g29
g497
I103
tp5651
(lp5652
(g15
g16
tp5653
as(g2
g2293
I45
tp5654
(lp5655
(g273
g274
tp5656
as(g29
g661
I4
tp5657
(lp5658
(g15
g16
tp5659
as(g29
g568
I41
tp5660
(lp5661
(g15
g16
tp5662
as(g29
g383
I55
tp5663
(lp5664
(g132
g133
tp5665
a(g15
g16
tp5666
as(g2
g643
I55
tp5667
(lp5668
(g6
g7
tp5669
as(g29
g1582
I37
tp5670
(lp5671
(g339
g340
tp5672
as(g29
g263
I43
tp5673
(lp5674
(g132
g133
tp5675
as(g2
g354
I48
tp5676
(lp5677
(g113
g114
tp5678
as(g38
g1297
I84
tp5679
(lp5680
(g329
g330
tp5681
a(g329
g330
tp5682
a(g389
g390
tp5683
as(g2
g708
I94
tp5684
(lp5685
(g113
g114
tp5686
as(g29
g661
I118
tp5687
(lp5688
(g15
g16
tp5689
as(g38
g1486
I14
tp5690
(lp5691
(g284
g285
tp5692
as(g2
g311
I49
tp5693
(lp5694
(g15
g16
tp5695
a(g172
g173
tp5696
as(g2
g941
I126
tp5697
(lp5698
(g389
g390
tp5699
as(g29
g422
I35
tp5700
(lp5701
(g15
g16
tp5702
as(g2
g117
I137
tp5703
(lp5704
(g15
g16
tp5705
as(g29
g110
I43
tp5706
(lp5707
(g54
g55
tp5708
as(g2
g1176
I32
tp5709
(lp5710
(g42
g43
tp5711
as(g2
g117
I153
tp5712
(lp5713
(g15
g16
tp5714
as(g29
g1400
I3
tp5715
(lp5716
(g184
g185
tp5717
as(g29
g1400
I19
tp5718
(lp5719
(g396
g397
tp5720
as(g38
g1928
I22
tp5721
(lp5722
(g113
g114
tp5723
as(g38
g541
I190
tp5724
(lp5725
(g54
g55
tp5726
as(g2
g643
I14
tp5727
(lp5728
(g813
g814
tp5729
as(g2
g270
I64
tp5730
(lp5731
(g874
g875
tp5732
as(g2
g1754
I33
tp5733
(lp5734
(g6
g7
tp5735
as(g2
g322
I20
tp5736
(lp5737
(g132
g133
tp5738
as(g2
g418
I110
tp5739
(lp5740
(g447
g448
tp5741
as(g2
g25
I73
tp5742
(lp5743
(g273
g274
tp5744
as(g29
g903
I78
tp5745
(lp5746
(g1303
g1304
tp5747
as(g29
g209
I34
tp5748
(lp5749
(g54
g55
tp5750
as(g2
g304
I122
tp5751
(lp5752
(g113
g114
tp5753
as(g2
g783
I70
tp5754
(lp5755
(g73
g74
tp5756
as(g29
g137
I29
tp5757
(lp5758
(g15
g16
tp5759
as(g2
g426
I66
tp5760
(lp5761
(g132
g133
tp5762
a(g42
g43
tp5763
as(g29
g555
I21
tp5764
(lp5765
(g73
g74
tp5766
a(g329
g330
tp5767
as(g2
g25
I146
tp5768
(lp5769
(g42
g43
tp5770
as(g29
g1048
I55
tp5771
(lp5772
(g15
g16
tp5773
a(g113
g114
tp5774
as(g2
g364
I39
tp5775
(lp5776
(g54
g55
tp5777
as(g29
g51
I76
tp5778
(lp5779
(g1089
g1090
tp5780
as(g2
g1754
I22
tp5781
(lp5782
(g132
g133
tp5783
as(g29
g129
I33
tp5784
(lp5785
(g113
g114
tp5786
as(g2
g368
I47
tp5787
(lp5788
(g1303
g1304
tp5789
as(g2
g418
I113
tp5790
(lp5791
(g447
g448
tp5792
as.